
Matrix_Test.elf:     file format elf32-littleriscv
Matrix_Test.elf
architecture: riscv:rv32, flags 0x00000112:
EXEC_P, HAS_SYMS, D_PAGED
start address 0x00000000

Program Header:
    LOAD off    0x00001000 vaddr 0x00000000 paddr 0x00000000 align 2**12
         filesz 0x00002054 memsz 0x00002054 flags rwx
    LOAD off    0x00004000 vaddr 0x20000000 paddr 0x00002054 align 2**12
         filesz 0x00000098 memsz 0x000006c4 flags rw-
    LOAD off    0x00004700 vaddr 0x20000700 paddr 0x20000700 align 2**12
         filesz 0x00000000 memsz 0x00000100 flags rw-

Sections:
Idx Name          Size      VMA       LMA       File off  Algn
  0 .init         000000a0  00000000  00000000  00001000  2**2
                  CONTENTS, ALLOC, LOAD, READONLY, CODE
  1 .text         00001fac  000000a0  000000a0  000010a0  2**2
                  CONTENTS, ALLOC, LOAD, READONLY, CODE
  2 .fini         00000000  0000204c  0000204c  00004098  2**0
                  CONTENTS, ALLOC, LOAD, CODE
  3 .init_array   00000008  0000204c  0000204c  0000304c  2**2
                  CONTENTS, ALLOC, LOAD, DATA
  4 .dalign       00000000  20000000  20000000  00004098  2**0
                  CONTENTS
  5 .dlalign      00000000  00002054  00002054  00004098  2**0
                  CONTENTS
  6 .data         00000098  20000000  00002054  00004000  2**2
                  CONTENTS, ALLOC, LOAD, DATA
  7 .bss          0000062c  20000098  000020ec  00004098  2**2
                  ALLOC
  8 .stack        00000100  20000700  20000700  00004700  2**0
                  ALLOC
  9 .debug_info   00009e25  00000000  00000000  00004098  2**0
                  CONTENTS, READONLY, DEBUGGING
 10 .debug_abbrev 00001ead  00000000  00000000  0000debd  2**0
                  CONTENTS, READONLY, DEBUGGING
 11 .debug_loc    00001f09  00000000  00000000  0000fd6a  2**0
                  CONTENTS, READONLY, DEBUGGING
 12 .debug_aranges 000004f0  00000000  00000000  00011c78  2**3
                  CONTENTS, READONLY, DEBUGGING
 13 .debug_ranges 00000488  00000000  00000000  00012168  2**3
                  CONTENTS, READONLY, DEBUGGING
 14 .debug_line   00006400  00000000  00000000  000125f0  2**0
                  CONTENTS, READONLY, DEBUGGING
 15 .debug_str    00001da1  00000000  00000000  000189f0  2**0
                  CONTENTS, READONLY, DEBUGGING
 16 .comment      00000033  00000000  00000000  0001a791  2**0
                  CONTENTS, READONLY
 17 .debug_frame  000011b8  00000000  00000000  0001a7c4  2**2
                  CONTENTS, READONLY, DEBUGGING
 18 .stab         00000084  00000000  00000000  0001b97c  2**2
                  CONTENTS, READONLY, DEBUGGING
 19 .stabstr      00000117  00000000  00000000  0001ba00  2**0
                  CONTENTS, READONLY, DEBUGGING
SYMBOL TABLE:
00000000 l    d  .init	00000000 .init
000000a0 l    d  .text	00000000 .text
0000204c l    d  .fini	00000000 .fini
0000204c l    d  .init_array	00000000 .init_array
20000000 l    d  .dalign	00000000 .dalign
00002054 l    d  .dlalign	00000000 .dlalign
20000000 l    d  .data	00000000 .data
20000098 l    d  .bss	00000000 .bss
20000700 l    d  .stack	00000000 .stack
00000000 l    d  .debug_info	00000000 .debug_info
00000000 l    d  .debug_abbrev	00000000 .debug_abbrev
00000000 l    d  .debug_loc	00000000 .debug_loc
00000000 l    d  .debug_aranges	00000000 .debug_aranges
00000000 l    d  .debug_ranges	00000000 .debug_ranges
00000000 l    d  .debug_line	00000000 .debug_line
00000000 l    d  .debug_str	00000000 .debug_str
00000000 l    d  .comment	00000000 .comment
00000000 l    d  .debug_frame	00000000 .debug_frame
00000000 l    d  .stab	00000000 .stab
00000000 l    d  .stabstr	00000000 .stabstr
00000000 l    df *ABS*	00000000 FastMatrix.cpp
00000000 l    df *ABS*	00000000 ch32v00x_it.c
00000000 l    df *ABS*	00000000 main.cpp
0000059a l     F .text	00000018 _GLOBAL__sub_I_inputImage
00000000 l    df *ABS*	00000000 system_ch32v00x.c
00000000 l    df *ABS*	00000000 ch32v00x_dma.c
00000000 l    df *ABS*	00000000 ch32v00x_gpio.c
00000000 l    df *ABS*	00000000 ch32v00x_rcc.c
20000004 l     O .data	00000014 ADCPrescTable
20000018 l     O .data	00000010 APBAHBPrescTable
00000000 l    df *ABS*	00000000 ch32v00x_spi.c
00000000 l    df *ABS*	00000000 ch32v00x_usart.c
00000000 l    df *ABS*	00000000 debug.c
20000028 l     O .data	00000004 curbrk.4059
00000000 l    df *ABS*	00000000 atexit.c
00000000 l    df *ABS*	00000000 fini.c
00000000 l    df *ABS*	00000000 init.c
00000000 l    df *ABS*	00000000 printf.c
00000000 l    df *ABS*	00000000 puts.c
00000000 l    df *ABS*	00000000 wbuf.c
00000000 l    df *ABS*	00000000 wsetup.c
00000000 l    df *ABS*	00000000 __atexit.c
20000634 l     O .bss	0000008c _global_atexit0
00000000 l    df *ABS*	00000000 __call_atexit.c
0000104e l     F .text	00000016 register_fini
00000000 l    df *ABS*	00000000 fflush.c
00000000 l    df *ABS*	00000000 findfp.c
000011f0 l     F .text	00000066 std
00000000 l    df *ABS*	00000000 fwalk.c
00000000 l    df *ABS*	00000000 makebuf.c
00000000 l    df *ABS*	00000000 nano-mallocr.c
00000000 l    df *ABS*	00000000 nano-mallocr.c
00000000 l    df *ABS*	00000000 nano-vfprintf.c
0000167e l     F .text	00000028 __sfputc_r
00000000 l    df *ABS*	00000000 nano-vfprintf_i.c
00000000 l    df *ABS*	00000000 sbrkr.c
00000000 l    df *ABS*	00000000 stdio.c
00000000 l    df *ABS*	00000000 writer.c
00000000 l    df *ABS*	00000000 closer.c
00000000 l    df *ABS*	00000000 fstatr.c
00000000 l    df *ABS*	00000000 isattyr.c
00000000 l    df *ABS*	00000000 lseekr.c
00000000 l    df *ABS*	00000000 memchr.c
00000000 l    df *ABS*	00000000 mlock.c
00000000 l    df *ABS*	00000000 readr.c
00000000 l    df *ABS*	00000000 close.c
00000000 l    df *ABS*	00000000 fstat.c
00000000 l    df *ABS*	00000000 isatty.c
00000000 l    df *ABS*	00000000 lseek.c
00000000 l    df *ABS*	00000000 read.c
00000000 l    df *ABS*	00000000 impure.c
2000002c l     O .data	00000060 impure_data
00000000 l    df *ABS*	00000000 reent.c
00000000 l    df *ABS*	00000000 
00002054 l       .init_array	00000000 __fini_array_end
00002054 l       .init_array	00000000 __fini_array_start
00002054 l       .init_array	00000000 __init_array_end
0000204c l       .fini	00000000 __preinit_array_end
0000204c l       .init_array	00000000 __init_array_start
0000204c l       .fini	00000000 __preinit_array_start
00001ec0 g     F .text	00000028 _isatty_r
00000d30 g     F .text	000000ca _puts_r
00001ee8 g     F .text	0000002c _lseek_r
00000838 g     F .text	00000014 DMA_Cmd
00000cec g     F .text	00000044 printf
20000890 g       .data	00000000 __global_pointer$
000006e2  w      .text	00000000 TIM1_CC_IRQHandler
00001e0a g     F .text	00000030 __sseek
000012a8 g     F .text	0000006a __sinit
00000e08 g     F .text	000000c2 __swbuf_r
0000044c g     F .text	00000002 HardFault_Handler
00001260 g     F .text	00000048 __sfmoreglue
00001f2e g     F .text	00000002 __malloc_unlock
000006b4  w      .text	00000000 SysTick_Handler
000006ba  w      .text	00000000 PVD_IRQHandler
00000388 g     F .text	000000ae FastMatrix::FastMatrix(unsigned char (*) [3][8][16], unsigned char (*) [8][8][8], unsigned char (*) [8][8][8])
00000448 g     F .text	00000004 NMI_Handler
00000b62 g     F .text	0000000a USART_GetFlagStatus
00001e96 g     F .text	0000002a _fstat_r
200006c0 g     O .bss	00000004 errno
20000098 g       .bss	00000000 _sbss
00000100 g       *ABS*	00000000 __stack_size
00000b6c g     F .text	00000054 USART_Printf_Init
00000800 g     F .text	00000038 DMA_Init
000000aa g     F .text	0000000a .hidden __riscv_restore_2
00001256 g     F .text	0000000a _cleanup_r
00000372 g     F .text	00000016 FastMatrix::blackBuffer(unsigned char (*) [8][8][8])
00000dfa g     F .text	0000000e puts
20000000 g     O .data	00000004 SystemCoreClock
000000bc g     F .text	0000002c .hidden __udivsi3
00001f68 g     F .text	0000000c _fstat
000000a0 g       .init	00000000 _einit
000009fc g     F .text	0000001e RCC_APB2PeriphClockCmd
00000862 g     F .text	000000d6 GPIO_Init
000006da  w      .text	00000000 SPI1_IRQHandler
00000b44 g     F .text	00000016 USART_Cmd
00001d6c g     F .text	0000002a _sbrk_r
000000a0 g     F .text	0000000a .hidden __riscv_save_1
000000aa g     F .text	0000000a .hidden __riscv_restore_0
000006c2  w      .text	00000000 AWU_IRQHandler
000006c0  w      .text	00000000 EXTI7_0_IRQHandler
00001f30 g     F .text	0000002c _read_r
20000700 g       .stack	00000000 _heap_end
00001f74 g     F .text	0000000c _isatty
20000094 g     O .data	00000004 _global_impure_ptr
00000c78 g     F .text	00000074 __libc_init_array
000009de g     F .text	0000001e RCC_AHBPeriphClockCmd
000006ca  w      .text	00000000 DMA1_Channel4_IRQHandler
000006d2  w      .text	00000000 ADC1_IRQHandler
00000c0c g     F .text	00000026 _sbrk
00000c34 g     F .text	00000002 _init
0000084c g     F .text	0000000e DMA_GetFlagStatus
00000c40 g     F .text	00000038 __libc_fini_array
200006c4 g       .bss	00000000 _ebss
000006d0  w      .text	00000000 DMA1_Channel7_IRQHandler
200000a4 g     O .bss	00000200 buffer0
00000938 g     F .text	0000000a GPIO_WriteBit
000000e8 g     F .text	00000008 .hidden __umodsi3
00001fb0 g     O .text	00000020 __sf_fake_stderr
000006d4  w      .text	00000000 I2C1_EV_IRQHandler
00000942 g     F .text	0000009c RCC_GetClocksFreq
000006ce  w      .text	00000000 DMA1_Channel6_IRQHandler
000016a6 g     F .text	0000003c __sfputs_r
00001f14 g     F .text	00000018 memchr
00000a78 g     F .text	000000cc USART_Init
000014fc g     F .text	000000a8 _free_r
20000098 g     O .bss	00000004 _global_atexit
000006be  w      .text	00000000 RCC_IRQHandler
000006e0  w      .text	00000000 TIM1_TRG_COM_IRQHandler
000006c4  w      .text	00000000 DMA1_Channel1_IRQHandler
00000000 g       .init	00000000 _start
00001f80 g     F .text	0000000c _lseek
00000fcc g     F .text	00000082 __register_exitproc
000004b8 g     F .text	00000078 SPI_Slave_Init()
00001e6e g     F .text	00000028 _close_r
20000000 g       .dalign	00000000 _data_vma
00000eca g     F .text	00000102 __swsetup_r
00001312 g     F .text	0000009e __sfp
00001d96 g     F .text	0000002c __sread
00001f2c g     F .text	00000002 __malloc_lock
00000388 g     F .text	000000ae FastMatrix::FastMatrix(unsigned char (*) [3][8][16], unsigned char (*) [8][8][8], unsigned char (*) [8][8][8])
0000118c g     F .text	00000064 _fflush_r
00001fd0 g     O .text	00000020 __sf_fake_stdin
200004a4 g     O .bss	00000180 inputImage
00000132 g     F .text	000000a8 memset
00000530 g     F .text	0000006a main
00000436 g     F .text	00000012 FastMatrix::newImage()
00001e3a g     F .text	00000006 __sclose
0000045c g     F .text	0000005c DMA_Rx_Init(DMA_Channel_TypeDef*, unsigned long, unsigned long, unsigned short)
00000a66 g     F .text	00000012 SPI_I2S_DMACmd
000015a4 g     F .text	000000da _malloc_r
20000624 g     O .bss	00000010 matrix
000006cc  w      .text	00000000 DMA1_Channel5_IRQHandler
000000b4 g     F .text	00000058 .hidden __divsi3
00000a4c g     F .text	0000001a SPI_Cmd
000005b2 g     F .text	000000fe SystemInit
00000c32 g     F .text	00000002 _fini
00000cec g     F .text	00000044 iprintf
00000000 g       .init	00000000 _sinit
00000c36 g     F .text	0000000a atexit
00001e40 g     F .text	0000002e _write_r
000006c8  w      .text	00000000 DMA1_Channel3_IRQHandler
00001988 g     F .text	0000012c _printf_common
20000090 g     O .data	00000004 _impure_ptr
000006de  w      .text	00000000 TIM1_UP_IRQHandler
00001064 g     F .text	00000128 __sflush_r
000006b8  w      .text	00000000 WWDG_IRQHandler
000006e4  w      .text	00000000 TIM2_IRQHandler
20000800 g       .stack	00000000 _eusrstack
000000a0 g     F .text	0000000a .hidden __riscv_save_2
000006b6  w      .text	00000000 SW_Handler
00000298 g     F .text	000000da FastMatrix::calcInputBuffer()
000006dc  w      .text	00000000 TIM1_BRK_IRQHandler
0000140e g     F .text	00000062 __swhatbuf_r
00000b5a g     F .text	00000008 USART_SendData
000001da g     F .text	00000074 MYGPIO_INIT(MYGPIO, GPIOMode_TypeDef)
00000bc0 g     F .text	0000004c _write
0000044e g     F .text	0000000e GPIO_Clock_Init()
20000098 g       .data	00000000 _edata
200006c4 g       .bss	00000000 _end
00002054 g       .dlalign	00000000 _data_lma
00001dc2 g     F .text	00000048 __swrite
200002a4 g     O .bss	00000200 buffer1
000016e2 g     F .text	000002a6 _vfiprintf_r
000013b0 g     F .text	0000005e _fwalk_reent
0000010c g     F .text	00000024 .hidden __modsi3
000006c6  w      .text	00000000 DMA1_Channel2_IRQHandler
00001ff0 g     O .text	00000020 __sf_fake_stdout
0000085a g     F .text	00000008 DMA_ClearFlag
00001f8c g     F .text	0000000c _read
000006e6  w      .text	00000000 handle_reset
000006bc  w      .text	00000000 FLASH_IRQHandler
000000a0 g     F .text	0000000a .hidden __riscv_save_0
000006d8  w      .text	00000000 USART1_IRQHandler
00001470 g     F .text	0000008c __smakebuf_r
00001ab4 g     F .text	000002b8 _printf_i
200000a0 g     O .bss	00000004 __malloc_sbrk_start
000006d6  w      .text	00000000 I2C1_ER_IRQHandler
00000a1a g     F .text	00000032 SPI_Init
0000076e g     F .text	00000092 DMA_DeInit
2000009c g     O .bss	00000004 __malloc_free_list
000000aa g     F .text	0000000a .hidden __riscv_restore_1
000016e2 g     F .text	000002a6 _vfprintf_r
0000024e g     F .text	0000004a MYGPIO_WriteBit(MYGPIO, BitAction)
00001f5c g     F .text	0000000c _close



Disassembly of section .init:

00000000 <_sinit>:
   0:	6e60006f          	j	6e6 <handle_reset>
   4:	0000                	unimp
   6:	0000                	unimp
   8:	0448                	addi	a0,sp,516
   a:	0000                	unimp
   c:	044c                	addi	a1,sp,516
	...
  2e:	0000                	unimp
  30:	06b4                	addi	a3,sp,840
  32:	0000                	unimp
  34:	0000                	unimp
  36:	0000                	unimp
  38:	06b6                	slli	a3,a3,0xd
  3a:	0000                	unimp
  3c:	0000                	unimp
  3e:	0000                	unimp
  40:	06b8                	addi	a4,sp,840
  42:	0000                	unimp
  44:	06ba                	slli	a3,a3,0xe
  46:	0000                	unimp
  48:	06bc                	addi	a5,sp,840
  4a:	0000                	unimp
  4c:	06be                	slli	a3,a3,0xf
  4e:	0000                	unimp
  50:	06c0                	addi	s0,sp,836
  52:	0000                	unimp
  54:	06c2                	slli	a3,a3,0x10
  56:	0000                	unimp
  58:	06c4                	addi	s1,sp,836
  5a:	0000                	unimp
  5c:	06c6                	slli	a3,a3,0x11
  5e:	0000                	unimp
  60:	06c8                	addi	a0,sp,836
  62:	0000                	unimp
  64:	06ca                	slli	a3,a3,0x12
  66:	0000                	unimp
  68:	06cc                	addi	a1,sp,836
  6a:	0000                	unimp
  6c:	06ce                	slli	a3,a3,0x13
  6e:	0000                	unimp
  70:	06d0                	addi	a2,sp,836
  72:	0000                	unimp
  74:	06d2                	slli	a3,a3,0x14
  76:	0000                	unimp
  78:	06d4                	addi	a3,sp,836
  7a:	0000                	unimp
  7c:	06d6                	slli	a3,a3,0x15
  7e:	0000                	unimp
  80:	06d8                	addi	a4,sp,836
  82:	0000                	unimp
  84:	06da                	slli	a3,a3,0x16
  86:	0000                	unimp
  88:	06dc                	addi	a5,sp,836
  8a:	0000                	unimp
  8c:	06de                	slli	a3,a3,0x17
  8e:	0000                	unimp
  90:	06e0                	addi	s0,sp,844
  92:	0000                	unimp
  94:	06e2                	slli	a3,a3,0x18
  96:	0000                	unimp
  98:	06e4                	addi	s1,sp,844
  9a:	0000                	unimp
  9c:	0000                	unimp
	...

Disassembly of section .text:

000000a0 <__riscv_save_0>:
      a0:	1151                	addi	sp,sp,-12
      a2:	c026                	sw	s1,0(sp)
      a4:	c222                	sw	s0,4(sp)
      a6:	c406                	sw	ra,8(sp)
      a8:	8282                	jr	t0

000000aa <__riscv_restore_0>:
      aa:	4482                	lw	s1,0(sp)
      ac:	4412                	lw	s0,4(sp)
      ae:	40a2                	lw	ra,8(sp)
      b0:	0131                	addi	sp,sp,12
      b2:	8082                	ret

000000b4 <__divsi3>:
      b4:	02054e63          	bltz	a0,f0 <__umodsi3+0x8>
      b8:	0405c363          	bltz	a1,fe <__umodsi3+0x16>

000000bc <__udivsi3>:
      bc:	862e                	mv	a2,a1
      be:	85aa                	mv	a1,a0
      c0:	557d                	li	a0,-1
      c2:	c215                	beqz	a2,e6 <__udivsi3+0x2a>
      c4:	4685                	li	a3,1
      c6:	00b67863          	bgeu	a2,a1,d6 <__udivsi3+0x1a>
      ca:	00c05663          	blez	a2,d6 <__udivsi3+0x1a>
      ce:	0606                	slli	a2,a2,0x1
      d0:	0686                	slli	a3,a3,0x1
      d2:	feb66ce3          	bltu	a2,a1,ca <__udivsi3+0xe>
      d6:	4501                	li	a0,0
      d8:	00c5e463          	bltu	a1,a2,e0 <__udivsi3+0x24>
      dc:	8d91                	sub	a1,a1,a2
      de:	8d55                	or	a0,a0,a3
      e0:	8285                	srli	a3,a3,0x1
      e2:	8205                	srli	a2,a2,0x1
      e4:	faf5                	bnez	a3,d8 <__udivsi3+0x1c>
      e6:	8082                	ret

000000e8 <__umodsi3>:
      e8:	8286                	mv	t0,ra
      ea:	3fc9                	jal	bc <__udivsi3>
      ec:	852e                	mv	a0,a1
      ee:	8282                	jr	t0
      f0:	40a00533          	neg	a0,a0
      f4:	0005d763          	bgez	a1,102 <__stack_size+0x2>
      f8:	40b005b3          	neg	a1,a1
      fc:	b7c1                	j	bc <__udivsi3>
      fe:	40b005b3          	neg	a1,a1
     102:	8286                	mv	t0,ra
     104:	3f65                	jal	bc <__udivsi3>
     106:	40a00533          	neg	a0,a0
     10a:	8282                	jr	t0

0000010c <__modsi3>:
     10c:	8286                	mv	t0,ra
     10e:	0005c763          	bltz	a1,11c <__modsi3+0x10>
     112:	00054963          	bltz	a0,124 <__modsi3+0x18>
     116:	375d                	jal	bc <__udivsi3>
     118:	852e                	mv	a0,a1
     11a:	8282                	jr	t0
     11c:	40b005b3          	neg	a1,a1
     120:	fe055be3          	bgez	a0,116 <__modsi3+0xa>
     124:	40a00533          	neg	a0,a0
     128:	3f51                	jal	bc <__udivsi3>
     12a:	40b00533          	neg	a0,a1
     12e:	8282                	jr	t0
	...

00000132 <memset>:
     132:	433d                	li	t1,15
     134:	872a                	mv	a4,a0
     136:	02c37363          	bgeu	t1,a2,15c <memset+0x2a>
     13a:	00f77793          	andi	a5,a4,15
     13e:	efbd                	bnez	a5,1bc <memset+0x8a>
     140:	e5ad                	bnez	a1,1aa <memset+0x78>
     142:	ff067693          	andi	a3,a2,-16
     146:	8a3d                	andi	a2,a2,15
     148:	96ba                	add	a3,a3,a4
     14a:	c30c                	sw	a1,0(a4)
     14c:	c34c                	sw	a1,4(a4)
     14e:	c70c                	sw	a1,8(a4)
     150:	c74c                	sw	a1,12(a4)
     152:	0741                	addi	a4,a4,16
     154:	fed76be3          	bltu	a4,a3,14a <memset+0x18>
     158:	e211                	bnez	a2,15c <memset+0x2a>
     15a:	8082                	ret
     15c:	40c306b3          	sub	a3,t1,a2
     160:	068a                	slli	a3,a3,0x2
     162:	00000297          	auipc	t0,0x0
     166:	9696                	add	a3,a3,t0
     168:	00a68067          	jr	10(a3)
     16c:	00b70723          	sb	a1,14(a4)
     170:	00b706a3          	sb	a1,13(a4)
     174:	00b70623          	sb	a1,12(a4)
     178:	00b705a3          	sb	a1,11(a4)
     17c:	00b70523          	sb	a1,10(a4)
     180:	00b704a3          	sb	a1,9(a4)
     184:	00b70423          	sb	a1,8(a4)
     188:	00b703a3          	sb	a1,7(a4)
     18c:	00b70323          	sb	a1,6(a4)
     190:	00b702a3          	sb	a1,5(a4)
     194:	00b70223          	sb	a1,4(a4)
     198:	00b701a3          	sb	a1,3(a4)
     19c:	00b70123          	sb	a1,2(a4)
     1a0:	00b700a3          	sb	a1,1(a4)
     1a4:	00b70023          	sb	a1,0(a4)
     1a8:	8082                	ret
     1aa:	0ff5f593          	andi	a1,a1,255
     1ae:	00859693          	slli	a3,a1,0x8
     1b2:	8dd5                	or	a1,a1,a3
     1b4:	01059693          	slli	a3,a1,0x10
     1b8:	8dd5                	or	a1,a1,a3
     1ba:	b761                	j	142 <memset+0x10>
     1bc:	00279693          	slli	a3,a5,0x2
     1c0:	00000297          	auipc	t0,0x0
     1c4:	9696                	add	a3,a3,t0
     1c6:	8286                	mv	t0,ra
     1c8:	fa8680e7          	jalr	-88(a3)
     1cc:	8096                	mv	ra,t0
     1ce:	17c1                	addi	a5,a5,-16
     1d0:	8f1d                	sub	a4,a4,a5
     1d2:	963e                	add	a2,a2,a5
     1d4:	f8c374e3          	bgeu	t1,a2,15c <memset+0x2a>
     1d8:	b7a5                	j	140 <memset+0xe>

000001da <MYGPIO_INIT(MYGPIO, GPIOMode_TypeDef)>:
     1da:	ec7ff2ef          	jal	t0,a0 <__riscv_save_0>
     1de:	1141                	addi	sp,sp,-16
     1e0:	40355793          	srai	a5,a0,0x3
     1e4:	c202                	sw	zero,4(sp)
     1e6:	c402                	sw	zero,8(sp)
     1e8:	c602                	sw	zero,12(sp)
     1ea:	8b8d                	andi	a5,a5,3
     1ec:	4709                	li	a4,2
     1ee:	04e78863          	beq	a5,a4,23e <MYGPIO_INIT(MYGPIO, GPIOMode_TypeDef)+0x64>
     1f2:	470d                	li	a4,3
     1f4:	04e78863          	beq	a5,a4,244 <MYGPIO_INIT(MYGPIO, GPIOMode_TypeDef)+0x6a>
     1f8:	4701                	li	a4,0
     1fa:	ef9d                	bnez	a5,238 <MYGPIO_INIT(MYGPIO, GPIOMode_TypeDef)+0x5e>
     1fc:	fff50693          	addi	a3,a0,-1
     200:	4605                	li	a2,1
     202:	873e                	mv	a4,a5
     204:	02d66a63          	bltu	a2,a3,238 <MYGPIO_INIT(MYGPIO, GPIOMode_TypeDef)+0x5e>
     208:	40011437          	lui	s0,0x40011
     20c:	80040413          	addi	s0,s0,-2048 # 40010800 <__global_pointer$+0x2000ff70>
     210:	84aa                	mv	s1,a0
     212:	c02e                	sw	a1,0(sp)
     214:	4541                	li	a0,16
     216:	4585                	li	a1,1
     218:	7e4000ef          	jal	ra,9fc <RCC_APB2PeriphClockCmd>
     21c:	4782                	lw	a5,0(sp)
     21e:	0074f513          	andi	a0,s1,7
     222:	4485                	li	s1,1
     224:	00a49533          	sll	a0,s1,a0
     228:	8268                	sh	a0,4(sp)
     22a:	c63e                	sw	a5,12(sp)
     22c:	004c                	addi	a1,sp,4
     22e:	478d                	li	a5,3
     230:	8522                	mv	a0,s0
     232:	c43e                	sw	a5,8(sp)
     234:	253d                	jal	862 <GPIO_Init>
     236:	4705                	li	a4,1
     238:	853a                	mv	a0,a4
     23a:	0141                	addi	sp,sp,16
     23c:	b5bd                	j	aa <__riscv_restore_0>
     23e:	40011437          	lui	s0,0x40011
     242:	b7f9                	j	210 <MYGPIO_INIT(MYGPIO, GPIOMode_TypeDef)+0x36>
     244:	40011437          	lui	s0,0x40011
     248:	40040413          	addi	s0,s0,1024 # 40011400 <__global_pointer$+0x20010b70>
     24c:	b7d1                	j	210 <MYGPIO_INIT(MYGPIO, GPIOMode_TypeDef)+0x36>

0000024e <MYGPIO_WriteBit(MYGPIO, BitAction)>:
     24e:	40355793          	srai	a5,a0,0x3
     252:	8b8d                	andi	a5,a5,3
     254:	4709                	li	a4,2
     256:	02e78863          	beq	a5,a4,286 <MYGPIO_WriteBit(MYGPIO, BitAction)+0x38>
     25a:	470d                	li	a4,3
     25c:	02e78863          	beq	a5,a4,28c <MYGPIO_WriteBit(MYGPIO, BitAction)+0x3e>
     260:	eb9d                	bnez	a5,296 <MYGPIO_WriteBit(MYGPIO, BitAction)+0x48>
     262:	400117b7          	lui	a5,0x40011
     266:	80078793          	addi	a5,a5,-2048 # 40010800 <__global_pointer$+0x2000ff70>
     26a:	e37ff2ef          	jal	t0,a0 <__riscv_save_0>
     26e:	4705                	li	a4,1
     270:	891d                	andi	a0,a0,7
     272:	00a71533          	sll	a0,a4,a0
     276:	862e                	mv	a2,a1
     278:	01051593          	slli	a1,a0,0x10
     27c:	81c1                	srli	a1,a1,0x10
     27e:	853e                	mv	a0,a5
     280:	6b8000ef          	jal	ra,938 <GPIO_WriteBit>
     284:	b51d                	j	aa <__riscv_restore_0>
     286:	400117b7          	lui	a5,0x40011
     28a:	b7c5                	j	26a <MYGPIO_WriteBit(MYGPIO, BitAction)+0x1c>
     28c:	400117b7          	lui	a5,0x40011
     290:	40078793          	addi	a5,a5,1024 # 40011400 <__global_pointer$+0x20010b70>
     294:	bfd9                	j	26a <MYGPIO_WriteBit(MYGPIO, BitAction)+0x1c>
     296:	8082                	ret

00000298 <FastMatrix::calcInputBuffer()>:
     298:	1131                	addi	sp,sp,-20
     29a:	c822                	sw	s0,16(sp)
     29c:	c626                	sw	s1,12(sp)
     29e:	4581                	li	a1,0
     2a0:	4785                	li	a5,1
     2a2:	00b79733          	sll	a4,a5,a1
     2a6:	00959793          	slli	a5,a1,0x9
     2aa:	0ff77713          	andi	a4,a4,255
     2ae:	c23e                	sw	a5,4(sp)
     2b0:	4681                	li	a3,0
     2b2:	411c                	lw	a5,0(a0)
     2b4:	00769313          	slli	t1,a3,0x7
     2b8:	006783b3          	add	t2,a5,t1
     2bc:	30078613          	addi	a2,a5,768
     2c0:	18078793          	addi	a5,a5,384
     2c4:	006784b3          	add	s1,a5,t1
     2c8:	00369793          	slli	a5,a3,0x3
     2cc:	961a                	add	a2,a2,t1
     2ce:	c43e                	sw	a5,8(sp)
     2d0:	4301                	li	t1,0
     2d2:	0003c783          	lbu	a5,0(t2)
     2d6:	8ff9                	and	a5,a5,a4
     2d8:	00f032b3          	snez	t0,a5
     2dc:	0083c783          	lbu	a5,8(t2)
     2e0:	028a                	slli	t0,t0,0x2
     2e2:	8ff9                	and	a5,a5,a4
     2e4:	00f037b3          	snez	a5,a5
     2e8:	078e                	slli	a5,a5,0x3
     2ea:	00f2e7b3          	or	a5,t0,a5
     2ee:	0004c283          	lbu	t0,0(s1)
     2f2:	005772b3          	and	t0,a4,t0
     2f6:	005032b3          	snez	t0,t0
     2fa:	0292                	slli	t0,t0,0x4
     2fc:	0057e7b3          	or	a5,a5,t0
     300:	0084c283          	lbu	t0,8(s1)
     304:	005772b3          	and	t0,a4,t0
     308:	005032b3          	snez	t0,t0
     30c:	0296                	slli	t0,t0,0x5
     30e:	0057e7b3          	or	a5,a5,t0
     312:	00064283          	lbu	t0,0(a2)
     316:	005772b3          	and	t0,a4,t0
     31a:	005032b3          	snez	t0,t0
     31e:	029a                	slli	t0,t0,0x6
     320:	0057e7b3          	or	a5,a5,t0
     324:	00864283          	lbu	t0,8(a2)
     328:	c03e                	sw	a5,0(sp)
     32a:	f8000793          	li	a5,-128
     32e:	005772b3          	and	t0,a4,t0
     332:	00029363          	bnez	t0,338 <FastMatrix::calcInputBuffer()+0xa0>
     336:	4781                	li	a5,0
     338:	00452283          	lw	t0,4(a0)
     33c:	4412                	lw	s0,4(sp)
     33e:	0385                	addi	t2,t2,1
     340:	0605                	addi	a2,a2,1
     342:	92a2                	add	t0,t0,s0
     344:	4422                	lw	s0,8(sp)
     346:	0485                	addi	s1,s1,1
     348:	941a                	add	s0,s0,t1
     34a:	040e                	slli	s0,s0,0x3
     34c:	92a2                	add	t0,t0,s0
     34e:	4402                	lw	s0,0(sp)
     350:	0305                	addi	t1,t1,1
     352:	8fc1                	or	a5,a5,s0
     354:	00f28023          	sb	a5,0(t0) # 1c0 <memset+0x8e>
     358:	47a1                	li	a5,8
     35a:	f6f31ce3          	bne	t1,a5,2d2 <FastMatrix::calcInputBuffer()+0x3a>
     35e:	0685                	addi	a3,a3,1
     360:	f46699e3          	bne	a3,t1,2b2 <FastMatrix::calcInputBuffer()+0x1a>
     364:	0585                	addi	a1,a1,1
     366:	f2d59de3          	bne	a1,a3,2a0 <FastMatrix::calcInputBuffer()+0x8>
     36a:	4442                	lw	s0,16(sp)
     36c:	44b2                	lw	s1,12(sp)
     36e:	0151                	addi	sp,sp,20
     370:	8082                	ret

00000372 <FastMatrix::blackBuffer(unsigned char (*) [8][8][8])>:
     372:	4781                	li	a5,0
     374:	20000713          	li	a4,512
     378:	00f586b3          	add	a3,a1,a5
     37c:	00068023          	sb	zero,0(a3)
     380:	0785                	addi	a5,a5,1
     382:	fee79be3          	bne	a5,a4,378 <FastMatrix::blackBuffer(unsigned char (*) [8][8][8])+0x6>
     386:	8082                	ret

00000388 <FastMatrix::FastMatrix(unsigned char (*) [3][8][16], unsigned char (*) [8][8][8], unsigned char (*) [8][8][8])>:
     388:	d19ff2ef          	jal	t0,a0 <__riscv_save_0>
     38c:	c150                	sw	a2,4(a0)
     38e:	c514                	sw	a3,8(a0)
     390:	842a                	mv	s0,a0
     392:	c10c                	sw	a1,0(a0)
     394:	00051623          	sh	zero,12(a0)
     398:	45c1                	li	a1,16
     39a:	4541                	li	a0,16
     39c:	3d3d                	jal	1da <MYGPIO_INIT(MYGPIO, GPIOMode_TypeDef)>
     39e:	45c1                	li	a1,16
     3a0:	4545                	li	a0,17
     3a2:	3d25                	jal	1da <MYGPIO_INIT(MYGPIO, GPIOMode_TypeDef)>
     3a4:	45c1                	li	a1,16
     3a6:	4549                	li	a0,18
     3a8:	3d0d                	jal	1da <MYGPIO_INIT(MYGPIO, GPIOMode_TypeDef)>
     3aa:	45c1                	li	a1,16
     3ac:	454d                	li	a0,19
     3ae:	3535                	jal	1da <MYGPIO_INIT(MYGPIO, GPIOMode_TypeDef)>
     3b0:	45c1                	li	a1,16
     3b2:	4551                	li	a0,20
     3b4:	351d                	jal	1da <MYGPIO_INIT(MYGPIO, GPIOMode_TypeDef)>
     3b6:	45c1                	li	a1,16
     3b8:	4561                	li	a0,24
     3ba:	3505                	jal	1da <MYGPIO_INIT(MYGPIO, GPIOMode_TypeDef)>
     3bc:	45c1                	li	a1,16
     3be:	4565                	li	a0,25
     3c0:	3d29                	jal	1da <MYGPIO_INIT(MYGPIO, GPIOMode_TypeDef)>
     3c2:	45c1                	li	a1,16
     3c4:	4569                	li	a0,26
     3c6:	3d11                	jal	1da <MYGPIO_INIT(MYGPIO, GPIOMode_TypeDef)>
     3c8:	45c1                	li	a1,16
     3ca:	456d                	li	a0,27
     3cc:	3539                	jal	1da <MYGPIO_INIT(MYGPIO, GPIOMode_TypeDef)>
     3ce:	45c1                	li	a1,16
     3d0:	4571                	li	a0,28
     3d2:	3521                	jal	1da <MYGPIO_INIT(MYGPIO, GPIOMode_TypeDef)>
     3d4:	45c1                	li	a1,16
     3d6:	4575                	li	a0,29
     3d8:	3509                	jal	1da <MYGPIO_INIT(MYGPIO, GPIOMode_TypeDef)>
     3da:	45c1                	li	a1,16
     3dc:	4579                	li	a0,30
     3de:	3bf5                	jal	1da <MYGPIO_INIT(MYGPIO, GPIOMode_TypeDef)>
     3e0:	45c1                	li	a1,16
     3e2:	457d                	li	a0,31
     3e4:	3bdd                	jal	1da <MYGPIO_INIT(MYGPIO, GPIOMode_TypeDef)>
     3e6:	404c                	lw	a1,4(s0)
     3e8:	8522                	mv	a0,s0
     3ea:	3761                	jal	372 <FastMatrix::blackBuffer(unsigned char (*) [8][8][8])>
     3ec:	440c                	lw	a1,8(s0)
     3ee:	8522                	mv	a0,s0
     3f0:	3749                	jal	372 <FastMatrix::blackBuffer(unsigned char (*) [8][8][8])>
     3f2:	e000e7b7          	lui	a5,0xe000e
     3f6:	6705                	lui	a4,0x1
     3f8:	10e7a023          	sw	a4,256(a5) # e000e100 <__global_pointer$+0xc000d870>
     3fc:	e000f7b7          	lui	a5,0xe000f
     400:	43d8                	lw	a4,4(a5)
     402:	9b79                	andi	a4,a4,-2
     404:	c3d8                	sw	a4,4(a5)
     406:	03f00713          	li	a4,63
     40a:	cb98                	sw	a4,16(a5)
     40c:	0007a423          	sw	zero,8(a5) # e000f008 <__global_pointer$+0xc000e778>
     410:	0007a023          	sw	zero,0(a5)
     414:	4398                	lw	a4,0(a5)
     416:	00276713          	ori	a4,a4,2
     41a:	c398                	sw	a4,0(a5)
     41c:	4398                	lw	a4,0(a5)
     41e:	00476713          	ori	a4,a4,4
     422:	c398                	sw	a4,0(a5)
     424:	4398                	lw	a4,0(a5)
     426:	00876713          	ori	a4,a4,8
     42a:	c398                	sw	a4,0(a5)
     42c:	4398                	lw	a4,0(a5)
     42e:	00176713          	ori	a4,a4,1
     432:	c398                	sw	a4,0(a5)
     434:	b99d                	j	aa <__riscv_restore_0>

00000436 <FastMatrix::newImage()>:
     436:	c6bff2ef          	jal	t0,a0 <__riscv_save_0>
     43a:	842a                	mv	s0,a0
     43c:	3db1                	jal	298 <FastMatrix::calcInputBuffer()>
     43e:	441c                	lw	a5,8(s0)
     440:	4058                	lw	a4,4(s0)
     442:	c05c                	sw	a5,4(s0)
     444:	c418                	sw	a4,8(s0)
     446:	b195                	j	aa <__riscv_restore_0>

00000448 <NMI_Handler>:
     448:	30200073          	mret

0000044c <HardFault_Handler>:
     44c:	a001                	j	44c <HardFault_Handler>

0000044e <GPIO_Clock_Init()>:
     44e:	c53ff2ef          	jal	t0,a0 <__riscv_save_0>
     452:	4585                	li	a1,1
     454:	03000513          	li	a0,48
     458:	2355                	jal	9fc <RCC_APB2PeriphClockCmd>
     45a:	b981                	j	aa <__riscv_restore_0>

0000045c <DMA_Rx_Init(DMA_Channel_TypeDef*, unsigned long, unsigned long, unsigned short)>:
     45c:	c45ff2ef          	jal	t0,a0 <__riscv_save_0>
     460:	fcc10113          	addi	sp,sp,-52
     464:	842a                	mv	s0,a0
     466:	c22e                	sw	a1,4(sp)
     468:	84b2                	mv	s1,a2
     46a:	4581                	li	a1,0
     46c:	02c00613          	li	a2,44
     470:	0028                	addi	a0,sp,8
     472:	c036                	sw	a3,0(sp)
     474:	397d                	jal	132 <memset>
     476:	4585                	li	a1,1
     478:	4505                	li	a0,1
     47a:	2395                	jal	9de <RCC_AHBPeriphClockCmd>
     47c:	8522                	mv	a0,s0
     47e:	2cc5                	jal	76e <DMA_DeInit>
     480:	4792                	lw	a5,4(sp)
     482:	4682                	lw	a3,0(sp)
     484:	002c                	addi	a1,sp,8
     486:	c43e                	sw	a5,8(sp)
     488:	08000793          	li	a5,128
     48c:	ce3e                	sw	a5,28(sp)
     48e:	10000793          	li	a5,256
     492:	d03e                	sw	a5,32(sp)
     494:	40000793          	li	a5,1024
     498:	d23e                	sw	a5,36(sp)
     49a:	02000793          	li	a5,32
     49e:	d43e                	sw	a5,40(sp)
     4a0:	8522                	mv	a0,s0
     4a2:	6789                	lui	a5,0x2
     4a4:	c626                	sw	s1,12(sp)
     4a6:	ca36                	sw	a3,20(sp)
     4a8:	d63e                	sw	a5,44(sp)
     4aa:	c802                	sw	zero,16(sp)
     4ac:	cc02                	sw	zero,24(sp)
     4ae:	d802                	sw	zero,48(sp)
     4b0:	2e81                	jal	800 <DMA_Init>
     4b2:	03410113          	addi	sp,sp,52
     4b6:	bed5                	j	aa <__riscv_restore_0>

000004b8 <SPI_Slave_Init()>:
     4b8:	be9ff2ef          	jal	t0,a0 <__riscv_save_0>
     4bc:	1101                	addi	sp,sp,-32
     4be:	4585                	li	a1,1
     4c0:	6505                	lui	a0,0x1
     4c2:	c002                	sw	zero,0(sp)
     4c4:	c202                	sw	zero,4(sp)
     4c6:	c402                	sw	zero,8(sp)
     4c8:	c602                	sw	zero,12(sp)
     4ca:	c802                	sw	zero,16(sp)
     4cc:	ca02                	sw	zero,20(sp)
     4ce:	cc02                	sw	zero,24(sp)
     4d0:	00011e23          	sh	zero,28(sp)
     4d4:	2325                	jal	9fc <RCC_APB2PeriphClockCmd>
     4d6:	4411                	li	s0,4
     4d8:	02000793          	li	a5,32
     4dc:	858a                	mv	a1,sp
     4de:	40011537          	lui	a0,0x40011
     4e2:	807c                	sh	a5,0(sp)
     4e4:	c422                	sw	s0,8(sp)
     4e6:	2eb5                	jal	862 <GPIO_Init>
     4e8:	04000793          	li	a5,64
     4ec:	858a                	mv	a1,sp
     4ee:	40011537          	lui	a0,0x40011
     4f2:	807c                	sh	a5,0(sp)
     4f4:	c422                	sw	s0,8(sp)
     4f6:	26b5                	jal	862 <GPIO_Init>
     4f8:	67a1                	lui	a5,0x8
     4fa:	c63e                	sw	a5,12(sp)
     4fc:	6785                	lui	a5,0x1
     4fe:	80078793          	addi	a5,a5,-2048 # 800 <DMA_Init>
     502:	c83e                	sw	a5,16(sp)
     504:	020007b7          	lui	a5,0x2000
     508:	ca3e                	sw	a5,20(sp)
     50a:	006c                	addi	a1,sp,12
     50c:	479d                	li	a5,7
     50e:	40013537          	lui	a0,0x40013
     512:	86fc                	sh	a5,28(sp)
     514:	00011d23          	sh	zero,26(sp)
     518:	2309                	jal	a1a <SPI_Init>
     51a:	4605                	li	a2,1
     51c:	4585                	li	a1,1
     51e:	40013537          	lui	a0,0x40013
     522:	2391                	jal	a66 <SPI_I2S_DMACmd>
     524:	4585                	li	a1,1
     526:	40013537          	lui	a0,0x40013
     52a:	230d                	jal	a4c <SPI_Cmd>
     52c:	6105                	addi	sp,sp,32
     52e:	beb5                	j	aa <__riscv_restore_0>

00000530 <main>:
     530:	b71ff2ef          	jal	t0,a0 <__riscv_save_0>
     534:	6571                	lui	a0,0x1c
     536:	20050513          	addi	a0,a0,512 # 1c200 <__fini_array_end+0x1a1ac>
     53a:	2d0d                	jal	b6c <USART_Printf_Init>
     53c:	00002537          	lui	a0,0x2
     540:	f9850513          	addi	a0,a0,-104 # 1f98 <_read+0xc>
     544:	0b7000ef          	jal	ra,dfa <puts>
     548:	200007b7          	lui	a5,0x20000
     54c:	0007a583          	lw	a1,0(a5) # 20000000 <_data_vma>
     550:	00002537          	lui	a0,0x2
     554:	fa050513          	addi	a0,a0,-96 # 1fa0 <_read+0x14>
     558:	794000ef          	jal	ra,cec <iprintf>
     55c:	3fb1                	jal	4b8 <SPI_Slave_Init()>
     55e:	40020437          	lui	s0,0x40020
     562:	400135b7          	lui	a1,0x40013
     566:	01c40513          	addi	a0,s0,28 # 4002001c <__global_pointer$+0x2001f78c>
     56a:	18000693          	li	a3,384
     56e:	c1418613          	addi	a2,gp,-1004 # 200004a4 <inputImage>
     572:	05b1                	addi	a1,a1,12
     574:	35e5                	jal	45c <DMA_Rx_Init(DMA_Channel_TypeDef*, unsigned long, unsigned long, unsigned short)>
     576:	01c40513          	addi	a0,s0,28
     57a:	4585                	li	a1,1
     57c:	2c75                	jal	838 <DMA_Cmd>
     57e:	02000513          	li	a0,32
     582:	24e9                	jal	84c <DMA_GetFlagStatus>
     584:	c519                	beqz	a0,592 <main+0x62>
     586:	02000513          	li	a0,32
     58a:	2cc1                	jal	85a <DMA_ClearFlag>
     58c:	d9418513          	addi	a0,gp,-620 # 20000624 <matrix>
     590:	355d                	jal	436 <FastMatrix::newImage()>
     592:	08000513          	li	a0,128
     596:	2c5d                	jal	84c <DMA_GetFlagStatus>
     598:	b7dd                	j	57e <main+0x4e>

0000059a <_GLOBAL__sub_I_inputImage>:
     59a:	b07ff2ef          	jal	t0,a0 <__riscv_save_0>
     59e:	a1418693          	addi	a3,gp,-1516 # 200002a4 <buffer1>
     5a2:	81418613          	addi	a2,gp,-2028 # 200000a4 <buffer0>
     5a6:	c1418593          	addi	a1,gp,-1004 # 200004a4 <inputImage>
     5aa:	d9418513          	addi	a0,gp,-620 # 20000624 <matrix>
     5ae:	3be9                	jal	388 <FastMatrix::FastMatrix(unsigned char (*) [3][8][16], unsigned char (*) [8][8][8], unsigned char (*) [8][8][8])>
     5b0:	bced                	j	aa <__riscv_restore_0>

000005b2 <SystemInit>:
     5b2:	400217b7          	lui	a5,0x40021
     5b6:	4398                	lw	a4,0(a5)
     5b8:	fcff06b7          	lui	a3,0xfcff0
     5bc:	1161                	addi	sp,sp,-8
     5be:	00176713          	ori	a4,a4,1
     5c2:	c398                	sw	a4,0(a5)
     5c4:	43d8                	lw	a4,4(a5)
     5c6:	6621                	lui	a2,0x8
     5c8:	8f75                	and	a4,a4,a3
     5ca:	c3d8                	sw	a4,4(a5)
     5cc:	4398                	lw	a4,0(a5)
     5ce:	fef706b7          	lui	a3,0xfef70
     5d2:	16fd                	addi	a3,a3,-1
     5d4:	8f75                	and	a4,a4,a3
     5d6:	c398                	sw	a4,0(a5)
     5d8:	4398                	lw	a4,0(a5)
     5da:	fffc06b7          	lui	a3,0xfffc0
     5de:	16fd                	addi	a3,a3,-1
     5e0:	8f75                	and	a4,a4,a3
     5e2:	c398                	sw	a4,0(a5)
     5e4:	43d8                	lw	a4,4(a5)
     5e6:	76c1                	lui	a3,0xffff0
     5e8:	16fd                	addi	a3,a3,-1
     5ea:	8f75                	and	a4,a4,a3
     5ec:	c3d8                	sw	a4,4(a5)
     5ee:	009f0737          	lui	a4,0x9f0
     5f2:	c798                	sw	a4,8(a5)
     5f4:	c002                	sw	zero,0(sp)
     5f6:	c202                	sw	zero,4(sp)
     5f8:	4f98                	lw	a4,24(a5)
     5fa:	400106b7          	lui	a3,0x40010
     5fe:	00176713          	ori	a4,a4,1
     602:	cf98                	sw	a4,24(a5)
     604:	42d8                	lw	a4,4(a3)
     606:	8f51                	or	a4,a4,a2
     608:	c2d8                	sw	a4,4(a3)
     60a:	4398                	lw	a4,0(a5)
     60c:	66c1                	lui	a3,0x10
     60e:	00020637          	lui	a2,0x20
     612:	8f55                	or	a4,a4,a3
     614:	c398                	sw	a4,0(a5)
     616:	400216b7          	lui	a3,0x40021
     61a:	6709                	lui	a4,0x2
     61c:	429c                	lw	a5,0(a3)
     61e:	8ff1                	and	a5,a5,a2
     620:	c23e                	sw	a5,4(sp)
     622:	4782                	lw	a5,0(sp)
     624:	0785                	addi	a5,a5,1
     626:	c03e                	sw	a5,0(sp)
     628:	4792                	lw	a5,4(sp)
     62a:	e781                	bnez	a5,632 <SystemInit+0x80>
     62c:	4782                	lw	a5,0(sp)
     62e:	fee797e3          	bne	a5,a4,61c <SystemInit+0x6a>
     632:	400217b7          	lui	a5,0x40021
     636:	439c                	lw	a5,0(a5)
     638:	00e79713          	slli	a4,a5,0xe
     63c:	06075863          	bgez	a4,6ac <SystemInit+0xfa>
     640:	4785                	li	a5,1
     642:	c23e                	sw	a5,4(sp)
     644:	4712                	lw	a4,4(sp)
     646:	4785                	li	a5,1
     648:	06f71063          	bne	a4,a5,6a8 <SystemInit+0xf6>
     64c:	400227b7          	lui	a5,0x40022
     650:	4398                	lw	a4,0(a5)
     652:	76c1                	lui	a3,0xffff0
     654:	16fd                	addi	a3,a3,-1
     656:	9b71                	andi	a4,a4,-4
     658:	c398                	sw	a4,0(a5)
     65a:	4398                	lw	a4,0(a5)
     65c:	00176713          	ori	a4,a4,1
     660:	c398                	sw	a4,0(a5)
     662:	400217b7          	lui	a5,0x40021
     666:	43d8                	lw	a4,4(a5)
     668:	c3d8                	sw	a4,4(a5)
     66a:	43d8                	lw	a4,4(a5)
     66c:	8f75                	and	a4,a4,a3
     66e:	c3d8                	sw	a4,4(a5)
     670:	43d8                	lw	a4,4(a5)
     672:	66c1                	lui	a3,0x10
     674:	8f55                	or	a4,a4,a3
     676:	c3d8                	sw	a4,4(a5)
     678:	4398                	lw	a4,0(a5)
     67a:	010006b7          	lui	a3,0x1000
     67e:	8f55                	or	a4,a4,a3
     680:	c398                	sw	a4,0(a5)
     682:	4398                	lw	a4,0(a5)
     684:	00671693          	slli	a3,a4,0x6
     688:	fe06dde3          	bgez	a3,682 <SystemInit+0xd0>
     68c:	43d8                	lw	a4,4(a5)
     68e:	400216b7          	lui	a3,0x40021
     692:	9b71                	andi	a4,a4,-4
     694:	c3d8                	sw	a4,4(a5)
     696:	43d8                	lw	a4,4(a5)
     698:	00276713          	ori	a4,a4,2
     69c:	c3d8                	sw	a4,4(a5)
     69e:	4721                	li	a4,8
     6a0:	42dc                	lw	a5,4(a3)
     6a2:	8bb1                	andi	a5,a5,12
     6a4:	fee79ee3          	bne	a5,a4,6a0 <SystemInit+0xee>
     6a8:	0121                	addi	sp,sp,8
     6aa:	8082                	ret
     6ac:	c202                	sw	zero,4(sp)
     6ae:	bf59                	j	644 <SystemInit+0x92>
     6b0:	a001                	j	6b0 <SystemInit+0xfe>
     6b2:	a001                	j	6b2 <SystemInit+0x100>

000006b4 <SysTick_Handler>:
     6b4:	a001                	j	6b4 <SysTick_Handler>

000006b6 <SW_Handler>:
     6b6:	a001                	j	6b6 <SW_Handler>

000006b8 <WWDG_IRQHandler>:
     6b8:	a001                	j	6b8 <WWDG_IRQHandler>

000006ba <PVD_IRQHandler>:
     6ba:	a001                	j	6ba <PVD_IRQHandler>

000006bc <FLASH_IRQHandler>:
     6bc:	a001                	j	6bc <FLASH_IRQHandler>

000006be <RCC_IRQHandler>:
     6be:	a001                	j	6be <RCC_IRQHandler>

000006c0 <EXTI7_0_IRQHandler>:
     6c0:	a001                	j	6c0 <EXTI7_0_IRQHandler>

000006c2 <AWU_IRQHandler>:
     6c2:	a001                	j	6c2 <AWU_IRQHandler>

000006c4 <DMA1_Channel1_IRQHandler>:
     6c4:	a001                	j	6c4 <DMA1_Channel1_IRQHandler>

000006c6 <DMA1_Channel2_IRQHandler>:
     6c6:	a001                	j	6c6 <DMA1_Channel2_IRQHandler>

000006c8 <DMA1_Channel3_IRQHandler>:
     6c8:	a001                	j	6c8 <DMA1_Channel3_IRQHandler>

000006ca <DMA1_Channel4_IRQHandler>:
     6ca:	a001                	j	6ca <DMA1_Channel4_IRQHandler>

000006cc <DMA1_Channel5_IRQHandler>:
     6cc:	a001                	j	6cc <DMA1_Channel5_IRQHandler>

000006ce <DMA1_Channel6_IRQHandler>:
     6ce:	a001                	j	6ce <DMA1_Channel6_IRQHandler>

000006d0 <DMA1_Channel7_IRQHandler>:
     6d0:	a001                	j	6d0 <DMA1_Channel7_IRQHandler>

000006d2 <ADC1_IRQHandler>:
     6d2:	a001                	j	6d2 <ADC1_IRQHandler>

000006d4 <I2C1_EV_IRQHandler>:
     6d4:	a001                	j	6d4 <I2C1_EV_IRQHandler>

000006d6 <I2C1_ER_IRQHandler>:
     6d6:	a001                	j	6d6 <I2C1_ER_IRQHandler>

000006d8 <USART1_IRQHandler>:
     6d8:	a001                	j	6d8 <USART1_IRQHandler>

000006da <SPI1_IRQHandler>:
     6da:	a001                	j	6da <SPI1_IRQHandler>

000006dc <TIM1_BRK_IRQHandler>:
     6dc:	a001                	j	6dc <TIM1_BRK_IRQHandler>

000006de <TIM1_UP_IRQHandler>:
     6de:	a001                	j	6de <TIM1_UP_IRQHandler>

000006e0 <TIM1_TRG_COM_IRQHandler>:
     6e0:	a001                	j	6e0 <TIM1_TRG_COM_IRQHandler>

000006e2 <TIM1_CC_IRQHandler>:
     6e2:	a001                	j	6e2 <TIM1_CC_IRQHandler>

000006e4 <TIM2_IRQHandler>:
     6e4:	a001                	j	6e4 <TIM2_IRQHandler>

000006e6 <handle_reset>:
     6e6:	20000197          	auipc	gp,0x20000
     6ea:	1aa18193          	addi	gp,gp,426 # 20000890 <__global_pointer$>
     6ee:	f7018113          	addi	sp,gp,-144 # 20000800 <_eusrstack>
     6f2:	00002517          	auipc	a0,0x2
     6f6:	96250513          	addi	a0,a0,-1694 # 2054 <__fini_array_end>
     6fa:	20000597          	auipc	a1,0x20000
     6fe:	90658593          	addi	a1,a1,-1786 # 20000000 <_data_vma>
     702:	80818613          	addi	a2,gp,-2040 # 20000098 <_edata>
     706:	00c5fa63          	bgeu	a1,a2,71a <handle_reset+0x34>
     70a:	00052283          	lw	t0,0(a0)
     70e:	0055a023          	sw	t0,0(a1)
     712:	0511                	addi	a0,a0,4
     714:	0591                	addi	a1,a1,4
     716:	fec5eae3          	bltu	a1,a2,70a <handle_reset+0x24>
     71a:	80818513          	addi	a0,gp,-2040 # 20000098 <_edata>
     71e:	e3418593          	addi	a1,gp,-460 # 200006c4 <_ebss>
     722:	00b57763          	bgeu	a0,a1,730 <handle_reset+0x4a>
     726:	00052023          	sw	zero,0(a0)
     72a:	0511                	addi	a0,a0,4
     72c:	feb56de3          	bltu	a0,a1,726 <handle_reset+0x40>
     730:	08000293          	li	t0,128
     734:	30029073          	csrw	mstatus,t0
     738:	428d                	li	t0,3
     73a:	80429073          	csrw	0x804,t0
     73e:	00000297          	auipc	t0,0x0
     742:	8c228293          	addi	t0,t0,-1854 # 0 <_sinit>
     746:	0032e293          	ori	t0,t0,3
     74a:	30529073          	csrw	mtvec,t0
     74e:	00000517          	auipc	a0,0x0
     752:	4f250513          	addi	a0,a0,1266 # c40 <__libc_fini_array>
     756:	21c5                	jal	c36 <atexit>
     758:	2305                	jal	c78 <__libc_init_array>
     75a:	e59ff0ef          	jal	ra,5b2 <SystemInit>
     75e:	00000297          	auipc	t0,0x0
     762:	dd228293          	addi	t0,t0,-558 # 530 <main>
     766:	34129073          	csrw	mepc,t0
     76a:	30200073          	mret

0000076e <DMA_DeInit>:
     76e:	411c                	lw	a5,0(a0)
     770:	6741                	lui	a4,0x10
     772:	1779                	addi	a4,a4,-2
     774:	8ff9                	and	a5,a5,a4
     776:	c11c                	sw	a5,0(a0)
     778:	00052023          	sw	zero,0(a0)
     77c:	00052223          	sw	zero,4(a0)
     780:	00052423          	sw	zero,8(a0)
     784:	400207b7          	lui	a5,0x40020
     788:	00052623          	sw	zero,12(a0)
     78c:	00878713          	addi	a4,a5,8 # 40020008 <__global_pointer$+0x2001f778>
     790:	00e51763          	bne	a0,a4,79e <DMA_DeInit+0x30>
     794:	43d8                	lw	a4,4(a5)
     796:	00f76713          	ori	a4,a4,15
     79a:	c3d8                	sw	a4,4(a5)
     79c:	8082                	ret
     79e:	01c78713          	addi	a4,a5,28
     7a2:	00e51663          	bne	a0,a4,7ae <DMA_DeInit+0x40>
     7a6:	43d8                	lw	a4,4(a5)
     7a8:	0f076713          	ori	a4,a4,240
     7ac:	b7fd                	j	79a <DMA_DeInit+0x2c>
     7ae:	03078713          	addi	a4,a5,48
     7b2:	00e51863          	bne	a0,a4,7c2 <DMA_DeInit+0x54>
     7b6:	43d8                	lw	a4,4(a5)
     7b8:	6685                	lui	a3,0x1
     7ba:	f0068693          	addi	a3,a3,-256 # f00 <__swsetup_r+0x36>
     7be:	8f55                	or	a4,a4,a3
     7c0:	bfe9                	j	79a <DMA_DeInit+0x2c>
     7c2:	04478713          	addi	a4,a5,68
     7c6:	00e51563          	bne	a0,a4,7d0 <DMA_DeInit+0x62>
     7ca:	43d8                	lw	a4,4(a5)
     7cc:	66bd                	lui	a3,0xf
     7ce:	bfc5                	j	7be <DMA_DeInit+0x50>
     7d0:	05878713          	addi	a4,a5,88
     7d4:	00e51663          	bne	a0,a4,7e0 <DMA_DeInit+0x72>
     7d8:	43d8                	lw	a4,4(a5)
     7da:	000f06b7          	lui	a3,0xf0
     7de:	b7c5                	j	7be <DMA_DeInit+0x50>
     7e0:	06c78713          	addi	a4,a5,108
     7e4:	00e51663          	bne	a0,a4,7f0 <DMA_DeInit+0x82>
     7e8:	43d8                	lw	a4,4(a5)
     7ea:	00f006b7          	lui	a3,0xf00
     7ee:	bfc1                	j	7be <DMA_DeInit+0x50>
     7f0:	08078713          	addi	a4,a5,128
     7f4:	fae514e3          	bne	a0,a4,79c <DMA_DeInit+0x2e>
     7f8:	43d8                	lw	a4,4(a5)
     7fa:	0f0006b7          	lui	a3,0xf000
     7fe:	b7c1                	j	7be <DMA_DeInit+0x50>

00000800 <DMA_Init>:
     800:	4118                	lw	a4,0(a0)
     802:	77e1                	lui	a5,0xffff8
     804:	07bd                	addi	a5,a5,15
     806:	5194                	lw	a3,32(a1)
     808:	8f7d                	and	a4,a4,a5
     80a:	459c                	lw	a5,8(a1)
     80c:	8fd5                	or	a5,a5,a3
     80e:	4994                	lw	a3,16(a1)
     810:	8fd5                	or	a5,a5,a3
     812:	49d4                	lw	a3,20(a1)
     814:	8fd5                	or	a5,a5,a3
     816:	4d94                	lw	a3,24(a1)
     818:	8fd5                	or	a5,a5,a3
     81a:	4dd4                	lw	a3,28(a1)
     81c:	8fd5                	or	a5,a5,a3
     81e:	51d4                	lw	a3,36(a1)
     820:	8fd5                	or	a5,a5,a3
     822:	5594                	lw	a3,40(a1)
     824:	8fd5                	or	a5,a5,a3
     826:	8fd9                	or	a5,a5,a4
     828:	c11c                	sw	a5,0(a0)
     82a:	45dc                	lw	a5,12(a1)
     82c:	c15c                	sw	a5,4(a0)
     82e:	419c                	lw	a5,0(a1)
     830:	c51c                	sw	a5,8(a0)
     832:	41dc                	lw	a5,4(a1)
     834:	c55c                	sw	a5,12(a0)
     836:	8082                	ret

00000838 <DMA_Cmd>:
     838:	411c                	lw	a5,0(a0)
     83a:	c589                	beqz	a1,844 <DMA_Cmd+0xc>
     83c:	0017e793          	ori	a5,a5,1
     840:	c11c                	sw	a5,0(a0)
     842:	8082                	ret
     844:	6741                	lui	a4,0x10
     846:	1779                	addi	a4,a4,-2
     848:	8ff9                	and	a5,a5,a4
     84a:	bfdd                	j	840 <DMA_Cmd+0x8>

0000084c <DMA_GetFlagStatus>:
     84c:	400207b7          	lui	a5,0x40020
     850:	439c                	lw	a5,0(a5)
     852:	8d7d                	and	a0,a0,a5
     854:	00a03533          	snez	a0,a0
     858:	8082                	ret

0000085a <DMA_ClearFlag>:
     85a:	400207b7          	lui	a5,0x40020
     85e:	c3c8                	sw	a0,4(a5)
     860:	8082                	ret

00000862 <GPIO_Init>:
     862:	459c                	lw	a5,8(a1)
     864:	1161                	addi	sp,sp,-8
     866:	c222                	sw	s0,4(sp)
     868:	c026                	sw	s1,0(sp)
     86a:	0107f713          	andi	a4,a5,16
     86e:	00f7f313          	andi	t1,a5,15
     872:	c701                	beqz	a4,87a <GPIO_Init+0x18>
     874:	41d8                	lw	a4,4(a1)
     876:	00e36333          	or	t1,t1,a4
     87a:	2192                	lhu	a2,0(a1)
     87c:	0ff67713          	andi	a4,a2,255
     880:	c729                	beqz	a4,8ca <GPIO_Init+0x68>
     882:	00052383          	lw	t2,0(a0)
     886:	4701                	li	a4,0
     888:	02800413          	li	s0,40
     88c:	04800493          	li	s1,72
     890:	4685                	li	a3,1
     892:	00e695b3          	sll	a1,a3,a4
     896:	00b676b3          	and	a3,a2,a1
     89a:	02d59263          	bne	a1,a3,8be <GPIO_Init+0x5c>
     89e:	00271293          	slli	t0,a4,0x2
     8a2:	46bd                	li	a3,15
     8a4:	005696b3          	sll	a3,a3,t0
     8a8:	fff6c693          	not	a3,a3
     8ac:	0076f3b3          	and	t2,a3,t2
     8b0:	005312b3          	sll	t0,t1,t0
     8b4:	0072e3b3          	or	t2,t0,t2
     8b8:	06879763          	bne	a5,s0,926 <GPIO_Init+0xc4>
     8bc:	c94c                	sw	a1,20(a0)
     8be:	0705                	addi	a4,a4,1
     8c0:	46a1                	li	a3,8
     8c2:	fcd717e3          	bne	a4,a3,890 <GPIO_Init+0x2e>
     8c6:	00752023          	sw	t2,0(a0)
     8ca:	0ff00713          	li	a4,255
     8ce:	04c77863          	bgeu	a4,a2,91e <GPIO_Init+0xbc>
     8d2:	00452383          	lw	t2,4(a0)
     8d6:	46a1                	li	a3,8
     8d8:	02800413          	li	s0,40
     8dc:	04800493          	li	s1,72
     8e0:	4705                	li	a4,1
     8e2:	00d712b3          	sll	t0,a4,a3
     8e6:	00567733          	and	a4,a2,t0
     8ea:	02e29463          	bne	t0,a4,912 <GPIO_Init+0xb0>
     8ee:	00269713          	slli	a4,a3,0x2
     8f2:	1701                	addi	a4,a4,-32
     8f4:	45bd                	li	a1,15
     8f6:	00e595b3          	sll	a1,a1,a4
     8fa:	fff5c593          	not	a1,a1
     8fe:	0075f3b3          	and	t2,a1,t2
     902:	00e31733          	sll	a4,t1,a4
     906:	007763b3          	or	t2,a4,t2
     90a:	02879263          	bne	a5,s0,92e <GPIO_Init+0xcc>
     90e:	00552a23          	sw	t0,20(a0)
     912:	0685                	addi	a3,a3,1
     914:	4741                	li	a4,16
     916:	fce695e3          	bne	a3,a4,8e0 <GPIO_Init+0x7e>
     91a:	00752223          	sw	t2,4(a0)
     91e:	4412                	lw	s0,4(sp)
     920:	4482                	lw	s1,0(sp)
     922:	0121                	addi	sp,sp,8
     924:	8082                	ret
     926:	f8979ce3          	bne	a5,s1,8be <GPIO_Init+0x5c>
     92a:	c90c                	sw	a1,16(a0)
     92c:	bf49                	j	8be <GPIO_Init+0x5c>
     92e:	fe9792e3          	bne	a5,s1,912 <GPIO_Init+0xb0>
     932:	00552823          	sw	t0,16(a0)
     936:	bff1                	j	912 <GPIO_Init+0xb0>

00000938 <GPIO_WriteBit>:
     938:	c219                	beqz	a2,93e <GPIO_WriteBit+0x6>
     93a:	c90c                	sw	a1,16(a0)
     93c:	8082                	ret
     93e:	c94c                	sw	a1,20(a0)
     940:	8082                	ret

00000942 <RCC_GetClocksFreq>:
     942:	f5eff2ef          	jal	t0,a0 <__riscv_save_0>
     946:	40021737          	lui	a4,0x40021
     94a:	435c                	lw	a5,4(a4)
     94c:	4691                	li	a3,4
     94e:	842a                	mv	s0,a0
     950:	8bb1                	andi	a5,a5,12
     952:	00d78563          	beq	a5,a3,95c <RCC_GetClocksFreq+0x1a>
     956:	46a1                	li	a3,8
     958:	06d78d63          	beq	a5,a3,9d2 <RCC_GetClocksFreq+0x90>
     95c:	016e37b7          	lui	a5,0x16e3
     960:	60078793          	addi	a5,a5,1536 # 16e3600 <__fini_array_end+0x16e15ac>
     964:	c01c                	sw	a5,0(s0)
     966:	400216b7          	lui	a3,0x40021
     96a:	42dc                	lw	a5,4(a3)
     96c:	8391                	srli	a5,a5,0x4
     96e:	00f7f713          	andi	a4,a5,15
     972:	200007b7          	lui	a5,0x20000
     976:	01878793          	addi	a5,a5,24 # 20000018 <APBAHBPrescTable>
     97a:	97ba                	add	a5,a5,a4
     97c:	238c                	lbu	a1,0(a5)
     97e:	42dc                	lw	a5,4(a3)
     980:	4018                	lw	a4,0(s0)
     982:	0ff5f593          	andi	a1,a1,255
     986:	0807f793          	andi	a5,a5,128
     98a:	00b75533          	srl	a0,a4,a1
     98e:	e781                	bnez	a5,996 <RCC_GetClocksFreq+0x54>
     990:	853a                	mv	a0,a4
     992:	f2aff0ef          	jal	ra,bc <__udivsi3>
     996:	c048                	sw	a0,4(s0)
     998:	c408                	sw	a0,8(s0)
     99a:	c448                	sw	a0,12(s0)
     99c:	400217b7          	lui	a5,0x40021
     9a0:	43dc                	lw	a5,4(a5)
     9a2:	83ad                	srli	a5,a5,0xb
     9a4:	8bfd                	andi	a5,a5,31
     9a6:	0037d713          	srli	a4,a5,0x3
     9aa:	078a                	slli	a5,a5,0x2
     9ac:	8bf1                	andi	a5,a5,28
     9ae:	8fd9                	or	a5,a5,a4
     9b0:	0137f693          	andi	a3,a5,19
     9b4:	470d                	li	a4,3
     9b6:	00d77363          	bgeu	a4,a3,9bc <RCC_GetClocksFreq+0x7a>
     9ba:	17d1                	addi	a5,a5,-12
     9bc:	20000737          	lui	a4,0x20000
     9c0:	00470713          	addi	a4,a4,4 # 20000004 <ADCPrescTable>
     9c4:	97ba                	add	a5,a5,a4
     9c6:	238c                	lbu	a1,0(a5)
     9c8:	ef4ff0ef          	jal	ra,bc <__udivsi3>
     9cc:	c808                	sw	a0,16(s0)
     9ce:	edcff06f          	j	aa <__riscv_restore_0>
     9d2:	435c                	lw	a5,4(a4)
     9d4:	02dc77b7          	lui	a5,0x2dc7
     9d8:	c0078793          	addi	a5,a5,-1024 # 2dc6c00 <__fini_array_end+0x2dc4bac>
     9dc:	b761                	j	964 <RCC_GetClocksFreq+0x22>

000009de <RCC_AHBPeriphClockCmd>:
     9de:	c599                	beqz	a1,9ec <RCC_AHBPeriphClockCmd+0xe>
     9e0:	40021737          	lui	a4,0x40021
     9e4:	4b5c                	lw	a5,20(a4)
     9e6:	8d5d                	or	a0,a0,a5
     9e8:	cb48                	sw	a0,20(a4)
     9ea:	8082                	ret
     9ec:	400217b7          	lui	a5,0x40021
     9f0:	4bd8                	lw	a4,20(a5)
     9f2:	fff54513          	not	a0,a0
     9f6:	8d79                	and	a0,a0,a4
     9f8:	cbc8                	sw	a0,20(a5)
     9fa:	8082                	ret

000009fc <RCC_APB2PeriphClockCmd>:
     9fc:	c599                	beqz	a1,a0a <RCC_APB2PeriphClockCmd+0xe>
     9fe:	40021737          	lui	a4,0x40021
     a02:	4f1c                	lw	a5,24(a4)
     a04:	8d5d                	or	a0,a0,a5
     a06:	cf08                	sw	a0,24(a4)
     a08:	8082                	ret
     a0a:	400217b7          	lui	a5,0x40021
     a0e:	4f98                	lw	a4,24(a5)
     a10:	fff54513          	not	a0,a0
     a14:	8d79                	and	a0,a0,a4
     a16:	cf88                	sw	a0,24(a5)
     a18:	8082                	ret

00000a1a <SPI_Init>:
     a1a:	211a                	lhu	a4,0(a0)
     a1c:	678d                	lui	a5,0x3
     a1e:	04078793          	addi	a5,a5,64 # 3040 <__fini_array_end+0xfec>
     a22:	21b6                	lhu	a3,2(a1)
     a24:	8f7d                	and	a4,a4,a5
     a26:	219e                	lhu	a5,0(a1)
     a28:	8fd5                	or	a5,a5,a3
     a2a:	21d6                	lhu	a3,4(a1)
     a2c:	8fd5                	or	a5,a5,a3
     a2e:	21f6                	lhu	a3,6(a1)
     a30:	8fd5                	or	a5,a5,a3
     a32:	2596                	lhu	a3,8(a1)
     a34:	8fd5                	or	a5,a5,a3
     a36:	25b6                	lhu	a3,10(a1)
     a38:	8fd5                	or	a5,a5,a3
     a3a:	25d6                	lhu	a3,12(a1)
     a3c:	8fd5                	or	a5,a5,a3
     a3e:	25f6                	lhu	a3,14(a1)
     a40:	8fd5                	or	a5,a5,a3
     a42:	8fd9                	or	a5,a5,a4
     a44:	a11e                	sh	a5,0(a0)
     a46:	299e                	lhu	a5,16(a1)
     a48:	a91e                	sh	a5,16(a0)
     a4a:	8082                	ret

00000a4c <SPI_Cmd>:
     a4c:	211e                	lhu	a5,0(a0)
     a4e:	c589                	beqz	a1,a58 <SPI_Cmd+0xc>
     a50:	0407e793          	ori	a5,a5,64
     a54:	a11e                	sh	a5,0(a0)
     a56:	8082                	ret
     a58:	07c2                	slli	a5,a5,0x10
     a5a:	83c1                	srli	a5,a5,0x10
     a5c:	fbf7f793          	andi	a5,a5,-65
     a60:	07c2                	slli	a5,a5,0x10
     a62:	83c1                	srli	a5,a5,0x10
     a64:	bfc5                	j	a54 <SPI_Cmd+0x8>

00000a66 <SPI_I2S_DMACmd>:
     a66:	215e                	lhu	a5,4(a0)
     a68:	c601                	beqz	a2,a70 <SPI_I2S_DMACmd+0xa>
     a6a:	8ddd                	or	a1,a1,a5
     a6c:	a14e                	sh	a1,4(a0)
     a6e:	8082                	ret
     a70:	fff5c593          	not	a1,a1
     a74:	8dfd                	and	a1,a1,a5
     a76:	bfdd                	j	a6c <SPI_I2S_DMACmd+0x6>

00000a78 <USART_Init>:
     a78:	e28ff2ef          	jal	t0,a0 <__riscv_save_0>
     a7c:	2916                	lhu	a3,16(a0)
     a7e:	77f5                	lui	a5,0xffffd
     a80:	17fd                	addi	a5,a5,-1
     a82:	8ff5                	and	a5,a5,a3
     a84:	21f6                	lhu	a3,6(a1)
     a86:	25da                	lhu	a4,12(a1)
     a88:	1121                	addi	sp,sp,-24
     a8a:	8fd5                	or	a5,a5,a3
     a8c:	a91e                	sh	a5,16(a0)
     a8e:	2556                	lhu	a3,12(a0)
     a90:	77fd                	lui	a5,0xfffff
     a92:	9f378793          	addi	a5,a5,-1549 # ffffe9f3 <__global_pointer$+0xdfffe163>
     a96:	8ff5                	and	a5,a5,a3
     a98:	21d6                	lhu	a3,4(a1)
     a9a:	842a                	mv	s0,a0
     a9c:	c02e                	sw	a1,0(sp)
     a9e:	8fd5                	or	a5,a5,a3
     aa0:	2596                	lhu	a3,8(a1)
     aa2:	8fd5                	or	a5,a5,a3
     aa4:	25b6                	lhu	a3,10(a1)
     aa6:	8fd5                	or	a5,a5,a3
     aa8:	a55e                	sh	a5,12(a0)
     aaa:	295e                	lhu	a5,20(a0)
     aac:	07c2                	slli	a5,a5,0x10
     aae:	83c1                	srli	a5,a5,0x10
     ab0:	cff7f793          	andi	a5,a5,-769
     ab4:	8f5d                	or	a4,a4,a5
     ab6:	a95a                	sh	a4,20(a0)
     ab8:	0048                	addi	a0,sp,4
     aba:	3561                	jal	942 <RCC_GetClocksFreq>
     abc:	400147b7          	lui	a5,0x40014
     ac0:	80078793          	addi	a5,a5,-2048 # 40013800 <__global_pointer$+0x20012f70>
     ac4:	4582                	lw	a1,0(sp)
     ac6:	06f41263          	bne	s0,a5,b2a <USART_Init+0xb2>
     aca:	47c2                	lw	a5,16(sp)
     acc:	245a                	lhu	a4,12(s0)
     ace:	00179513          	slli	a0,a5,0x1
     ad2:	953e                	add	a0,a0,a5
     ad4:	0742                	slli	a4,a4,0x10
     ad6:	050e                	slli	a0,a0,0x3
     ad8:	8741                	srai	a4,a4,0x10
     ada:	953e                	add	a0,a0,a5
     adc:	418c                	lw	a1,0(a1)
     ade:	04075863          	bgez	a4,b2e <USART_Init+0xb6>
     ae2:	0586                	slli	a1,a1,0x1
     ae4:	dd8ff0ef          	jal	ra,bc <__udivsi3>
     ae8:	06400593          	li	a1,100
     aec:	c02a                	sw	a0,0(sp)
     aee:	dceff0ef          	jal	ra,bc <__udivsi3>
     af2:	4782                	lw	a5,0(sp)
     af4:	00451493          	slli	s1,a0,0x4
     af8:	06400593          	li	a1,100
     afc:	853e                	mv	a0,a5
     afe:	deaff0ef          	jal	ra,e8 <__umodsi3>
     b02:	245e                	lhu	a5,12(s0)
     b04:	07c2                	slli	a5,a5,0x10
     b06:	87c1                	srai	a5,a5,0x10
     b08:	0207d563          	bgez	a5,b32 <USART_Init+0xba>
     b0c:	050e                	slli	a0,a0,0x3
     b0e:	06400593          	li	a1,100
     b12:	03250513          	addi	a0,a0,50
     b16:	da6ff0ef          	jal	ra,bc <__udivsi3>
     b1a:	891d                	andi	a0,a0,7
     b1c:	8cc9                	or	s1,s1,a0
     b1e:	04c2                	slli	s1,s1,0x10
     b20:	80c1                	srli	s1,s1,0x10
     b22:	a406                	sh	s1,8(s0)
     b24:	0161                	addi	sp,sp,24
     b26:	d84ff06f          	j	aa <__riscv_restore_0>
     b2a:	47b2                	lw	a5,12(sp)
     b2c:	b745                	j	acc <USART_Init+0x54>
     b2e:	058a                	slli	a1,a1,0x2
     b30:	bf55                	j	ae4 <USART_Init+0x6c>
     b32:	0512                	slli	a0,a0,0x4
     b34:	06400593          	li	a1,100
     b38:	03250513          	addi	a0,a0,50
     b3c:	d80ff0ef          	jal	ra,bc <__udivsi3>
     b40:	893d                	andi	a0,a0,15
     b42:	bfe9                	j	b1c <USART_Init+0xa4>

00000b44 <USART_Cmd>:
     b44:	c591                	beqz	a1,b50 <USART_Cmd+0xc>
     b46:	255e                	lhu	a5,12(a0)
     b48:	6709                	lui	a4,0x2
     b4a:	8fd9                	or	a5,a5,a4
     b4c:	a55e                	sh	a5,12(a0)
     b4e:	8082                	ret
     b50:	255a                	lhu	a4,12(a0)
     b52:	77f9                	lui	a5,0xffffe
     b54:	17fd                	addi	a5,a5,-1
     b56:	8ff9                	and	a5,a5,a4
     b58:	bfd5                	j	b4c <USART_Cmd+0x8>

00000b5a <USART_SendData>:
     b5a:	1ff5f593          	andi	a1,a1,511
     b5e:	a14e                	sh	a1,4(a0)
     b60:	8082                	ret

00000b62 <USART_GetFlagStatus>:
     b62:	210a                	lhu	a0,0(a0)
     b64:	8d6d                	and	a0,a0,a1
     b66:	00a03533          	snez	a0,a0
     b6a:	8082                	ret

00000b6c <USART_Printf_Init>:
     b6c:	d34ff2ef          	jal	t0,a0 <__riscv_save_0>
     b70:	842a                	mv	s0,a0
     b72:	6511                	lui	a0,0x4
     b74:	1111                	addi	sp,sp,-28
     b76:	4585                	li	a1,1
     b78:	02050513          	addi	a0,a0,32 # 4020 <__fini_array_end+0x1fcc>
     b7c:	3541                	jal	9fc <RCC_APB2PeriphClockCmd>
     b7e:	02000793          	li	a5,32
     b82:	807c                	sh	a5,0(sp)
     b84:	40011537          	lui	a0,0x40011
     b88:	478d                	li	a5,3
     b8a:	c23e                	sw	a5,4(sp)
     b8c:	858a                	mv	a1,sp
     b8e:	47e1                	li	a5,24
     b90:	40050513          	addi	a0,a0,1024 # 40011400 <__global_pointer$+0x20010b70>
     b94:	c43e                	sw	a5,8(sp)
     b96:	31f1                	jal	862 <GPIO_Init>
     b98:	c622                	sw	s0,12(sp)
     b9a:	40014437          	lui	s0,0x40014
     b9e:	000807b7          	lui	a5,0x80
     ba2:	006c                	addi	a1,sp,12
     ba4:	80040513          	addi	a0,s0,-2048 # 40013800 <__global_pointer$+0x20012f70>
     ba8:	ca3e                	sw	a5,20(sp)
     baa:	c802                	sw	zero,16(sp)
     bac:	00011c23          	sh	zero,24(sp)
     bb0:	35e1                	jal	a78 <USART_Init>
     bb2:	4585                	li	a1,1
     bb4:	80040513          	addi	a0,s0,-2048
     bb8:	3771                	jal	b44 <USART_Cmd>
     bba:	0171                	addi	sp,sp,28
     bbc:	ceeff06f          	j	aa <__riscv_restore_0>

00000bc0 <_write>:
     bc0:	ce0ff2ef          	jal	t0,a0 <__riscv_save_0>
     bc4:	1171                	addi	sp,sp,-4
     bc6:	84ae                	mv	s1,a1
     bc8:	4401                	li	s0,0
     bca:	02c45d63          	bge	s0,a2,c04 <_write+0x44>
     bce:	400147b7          	lui	a5,0x40014
     bd2:	80078713          	addi	a4,a5,-2048 # 40013800 <__global_pointer$+0x20012f70>
     bd6:	853a                	mv	a0,a4
     bd8:	04000593          	li	a1,64
     bdc:	c032                	sw	a2,0(sp)
     bde:	3751                	jal	b62 <USART_GetFlagStatus>
     be0:	400147b7          	lui	a5,0x40014
     be4:	80078713          	addi	a4,a5,-2048 # 40013800 <__global_pointer$+0x20012f70>
     be8:	4602                	lw	a2,0(sp)
     bea:	d575                	beqz	a0,bd6 <_write+0x16>
     bec:	00848733          	add	a4,s1,s0
     bf0:	00070583          	lb	a1,0(a4) # 2000 <__sf_fake_stdout+0x10>
     bf4:	80078513          	addi	a0,a5,-2048
     bf8:	0405                	addi	s0,s0,1
     bfa:	05c2                	slli	a1,a1,0x10
     bfc:	81c1                	srli	a1,a1,0x10
     bfe:	3fb1                	jal	b5a <USART_SendData>
     c00:	4602                	lw	a2,0(sp)
     c02:	b7e1                	j	bca <_write+0xa>
     c04:	8532                	mv	a0,a2
     c06:	0111                	addi	sp,sp,4
     c08:	ca2ff06f          	j	aa <__riscv_restore_0>

00000c0c <_sbrk>:
     c0c:	20000737          	lui	a4,0x20000
     c10:	02870713          	addi	a4,a4,40 # 20000028 <curbrk.4059>
     c14:	431c                	lw	a5,0(a4)
     c16:	e3418693          	addi	a3,gp,-460 # 200006c4 <_ebss>
     c1a:	953e                	add	a0,a0,a5
     c1c:	00d56963          	bltu	a0,a3,c2e <_sbrk+0x22>
     c20:	e7018693          	addi	a3,gp,-400 # 20000700 <_heap_end>
     c24:	00a6e563          	bltu	a3,a0,c2e <_sbrk+0x22>
     c28:	c308                	sw	a0,0(a4)
     c2a:	853e                	mv	a0,a5
     c2c:	8082                	ret
     c2e:	57fd                	li	a5,-1
     c30:	bfed                	j	c2a <_sbrk+0x1e>

00000c32 <_fini>:
     c32:	8082                	ret

00000c34 <_init>:
     c34:	8082                	ret

00000c36 <atexit>:
     c36:	85aa                	mv	a1,a0
     c38:	4681                	li	a3,0
     c3a:	4601                	li	a2,0
     c3c:	4501                	li	a0,0
     c3e:	a679                	j	fcc <__register_exitproc>

00000c40 <__libc_fini_array>:
     c40:	1151                	addi	sp,sp,-12
     c42:	00001797          	auipc	a5,0x1
     c46:	41278793          	addi	a5,a5,1042 # 2054 <__fini_array_end>
     c4a:	c222                	sw	s0,4(sp)
     c4c:	00001417          	auipc	s0,0x1
     c50:	40840413          	addi	s0,s0,1032 # 2054 <__fini_array_end>
     c54:	8c1d                	sub	s0,s0,a5
     c56:	c026                	sw	s1,0(sp)
     c58:	c406                	sw	ra,8(sp)
     c5a:	8409                	srai	s0,s0,0x2
     c5c:	84be                	mv	s1,a5
     c5e:	e411                	bnez	s0,c6a <__libc_fini_array+0x2a>
     c60:	4412                	lw	s0,4(sp)
     c62:	40a2                	lw	ra,8(sp)
     c64:	4482                	lw	s1,0(sp)
     c66:	0131                	addi	sp,sp,12
     c68:	b7e9                	j	c32 <_fini>
     c6a:	147d                	addi	s0,s0,-1
     c6c:	00241793          	slli	a5,s0,0x2
     c70:	97a6                	add	a5,a5,s1
     c72:	439c                	lw	a5,0(a5)
     c74:	9782                	jalr	a5
     c76:	b7e5                	j	c5e <__libc_fini_array+0x1e>

00000c78 <__libc_init_array>:
     c78:	1151                	addi	sp,sp,-12
     c7a:	c222                	sw	s0,4(sp)
     c7c:	00001797          	auipc	a5,0x1
     c80:	3d078793          	addi	a5,a5,976 # 204c <__preinit_array_end>
     c84:	00001417          	auipc	s0,0x1
     c88:	3c840413          	addi	s0,s0,968 # 204c <__preinit_array_end>
     c8c:	8c1d                	sub	s0,s0,a5
     c8e:	c026                	sw	s1,0(sp)
     c90:	c406                	sw	ra,8(sp)
     c92:	8409                	srai	s0,s0,0x2
     c94:	4481                	li	s1,0
     c96:	02849563          	bne	s1,s0,cc0 <__libc_init_array+0x48>
     c9a:	3f69                	jal	c34 <_init>
     c9c:	00001797          	auipc	a5,0x1
     ca0:	3b078793          	addi	a5,a5,944 # 204c <__preinit_array_end>
     ca4:	00001417          	auipc	s0,0x1
     ca8:	3b040413          	addi	s0,s0,944 # 2054 <__fini_array_end>
     cac:	8c1d                	sub	s0,s0,a5
     cae:	8409                	srai	s0,s0,0x2
     cb0:	4481                	li	s1,0
     cb2:	02849263          	bne	s1,s0,cd6 <__libc_init_array+0x5e>
     cb6:	40a2                	lw	ra,8(sp)
     cb8:	4412                	lw	s0,4(sp)
     cba:	4482                	lw	s1,0(sp)
     cbc:	0131                	addi	sp,sp,12
     cbe:	8082                	ret
     cc0:	00249713          	slli	a4,s1,0x2
     cc4:	973e                	add	a4,a4,a5
     cc6:	4318                	lw	a4,0(a4)
     cc8:	0485                	addi	s1,s1,1
     cca:	9702                	jalr	a4
     ccc:	00001797          	auipc	a5,0x1
     cd0:	38078793          	addi	a5,a5,896 # 204c <__preinit_array_end>
     cd4:	b7c9                	j	c96 <__libc_init_array+0x1e>
     cd6:	00249713          	slli	a4,s1,0x2
     cda:	973e                	add	a4,a4,a5
     cdc:	4318                	lw	a4,0(a4)
     cde:	0485                	addi	s1,s1,1
     ce0:	9702                	jalr	a4
     ce2:	00001797          	auipc	a5,0x1
     ce6:	36a78793          	addi	a5,a5,874 # 204c <__preinit_array_end>
     cea:	b7e1                	j	cb2 <__libc_init_array+0x3a>

00000cec <iprintf>:
     cec:	fdc10113          	addi	sp,sp,-36
     cf0:	d03e                	sw	a5,32(sp)
     cf2:	c82e                	sw	a1,16(sp)
     cf4:	ca32                	sw	a2,20(sp)
     cf6:	cc36                	sw	a3,24(sp)
     cf8:	ce3a                	sw	a4,28(sp)
     cfa:	1ffff797          	auipc	a5,0x1ffff
     cfe:	39678793          	addi	a5,a5,918 # 20000090 <_impure_ptr>
     d02:	c422                	sw	s0,8(sp)
     d04:	4380                	lw	s0,0(a5)
     d06:	c226                	sw	s1,4(sp)
     d08:	c606                	sw	ra,12(sp)
     d0a:	84aa                	mv	s1,a0
     d0c:	c409                	beqz	s0,d16 <iprintf+0x2a>
     d0e:	4c1c                	lw	a5,24(s0)
     d10:	e399                	bnez	a5,d16 <iprintf+0x2a>
     d12:	8522                	mv	a0,s0
     d14:	2b51                	jal	12a8 <__sinit>
     d16:	440c                	lw	a1,8(s0)
     d18:	0814                	addi	a3,sp,16
     d1a:	8626                	mv	a2,s1
     d1c:	8522                	mv	a0,s0
     d1e:	c036                	sw	a3,0(sp)
     d20:	1c3000ef          	jal	ra,16e2 <_vfiprintf_r>
     d24:	40b2                	lw	ra,12(sp)
     d26:	4422                	lw	s0,8(sp)
     d28:	4492                	lw	s1,4(sp)
     d2a:	02410113          	addi	sp,sp,36
     d2e:	8082                	ret

00000d30 <_puts_r>:
     d30:	1141                	addi	sp,sp,-16
     d32:	c226                	sw	s1,4(sp)
     d34:	c606                	sw	ra,12(sp)
     d36:	c422                	sw	s0,8(sp)
     d38:	c02e                	sw	a1,0(sp)
     d3a:	84aa                	mv	s1,a0
     d3c:	c501                	beqz	a0,d44 <_puts_r+0x14>
     d3e:	4d18                	lw	a4,24(a0)
     d40:	e311                	bnez	a4,d44 <_puts_r+0x14>
     d42:	239d                	jal	12a8 <__sinit>
     d44:	4c98                	lw	a4,24(s1)
     d46:	4480                	lw	s0,8(s1)
     d48:	e319                	bnez	a4,d4e <_puts_r+0x1e>
     d4a:	8526                	mv	a0,s1
     d4c:	2bb1                	jal	12a8 <__sinit>
     d4e:	00001717          	auipc	a4,0x1
     d52:	28270713          	addi	a4,a4,642 # 1fd0 <__sf_fake_stdin>
     d56:	02e41263          	bne	s0,a4,d7a <_puts_r+0x4a>
     d5a:	40c0                	lw	s0,4(s1)
     d5c:	245a                	lhu	a4,12(s0)
     d5e:	8b21                	andi	a4,a4,8
     d60:	c319                	beqz	a4,d66 <_puts_r+0x36>
     d62:	4818                	lw	a4,16(s0)
     d64:	ef21                	bnez	a4,dbc <_puts_r+0x8c>
     d66:	85a2                	mv	a1,s0
     d68:	8526                	mv	a0,s1
     d6a:	2285                	jal	eca <__swsetup_r>
     d6c:	c921                	beqz	a0,dbc <_puts_r+0x8c>
     d6e:	557d                	li	a0,-1
     d70:	40b2                	lw	ra,12(sp)
     d72:	4422                	lw	s0,8(sp)
     d74:	4492                	lw	s1,4(sp)
     d76:	0141                	addi	sp,sp,16
     d78:	8082                	ret
     d7a:	00001717          	auipc	a4,0x1
     d7e:	27670713          	addi	a4,a4,630 # 1ff0 <__sf_fake_stdout>
     d82:	00e41463          	bne	s0,a4,d8a <_puts_r+0x5a>
     d86:	4480                	lw	s0,8(s1)
     d88:	bfd1                	j	d5c <_puts_r+0x2c>
     d8a:	00001717          	auipc	a4,0x1
     d8e:	22670713          	addi	a4,a4,550 # 1fb0 <__sf_fake_stderr>
     d92:	fce415e3          	bne	s0,a4,d5c <_puts_r+0x2c>
     d96:	44c0                	lw	s0,12(s1)
     d98:	b7d1                	j	d5c <_puts_r+0x2c>
     d9a:	4782                	lw	a5,0(sp)
     d9c:	c418                	sw	a4,8(s0)
     d9e:	0785                	addi	a5,a5,1
     da0:	c03e                	sw	a5,0(sp)
     da2:	00075863          	bgez	a4,db2 <_puts_r+0x82>
     da6:	4c14                	lw	a3,24(s0)
     da8:	02d74b63          	blt	a4,a3,dde <_puts_r+0xae>
     dac:	4729                	li	a4,10
     dae:	02e58863          	beq	a1,a4,dde <_puts_r+0xae>
     db2:	4018                	lw	a4,0(s0)
     db4:	00170693          	addi	a3,a4,1
     db8:	c014                	sw	a3,0(s0)
     dba:	a30c                	sb	a1,0(a4)
     dbc:	4782                	lw	a5,0(sp)
     dbe:	4418                	lw	a4,8(s0)
     dc0:	238c                	lbu	a1,0(a5)
     dc2:	177d                	addi	a4,a4,-1
     dc4:	f9f9                	bnez	a1,d9a <_puts_r+0x6a>
     dc6:	c418                	sw	a4,8(s0)
     dc8:	02075263          	bgez	a4,dec <_puts_r+0xbc>
     dcc:	8622                	mv	a2,s0
     dce:	45a9                	li	a1,10
     dd0:	8526                	mv	a0,s1
     dd2:	281d                	jal	e08 <__swbuf_r>
     dd4:	57fd                	li	a5,-1
     dd6:	f8f50ce3          	beq	a0,a5,d6e <_puts_r+0x3e>
     dda:	4529                	li	a0,10
     ddc:	bf51                	j	d70 <_puts_r+0x40>
     dde:	8622                	mv	a2,s0
     de0:	8526                	mv	a0,s1
     de2:	201d                	jal	e08 <__swbuf_r>
     de4:	577d                	li	a4,-1
     de6:	fce51be3          	bne	a0,a4,dbc <_puts_r+0x8c>
     dea:	b751                	j	d6e <_puts_r+0x3e>
     dec:	401c                	lw	a5,0(s0)
     dee:	00178713          	addi	a4,a5,1
     df2:	c018                	sw	a4,0(s0)
     df4:	4729                	li	a4,10
     df6:	a398                	sb	a4,0(a5)
     df8:	b7cd                	j	dda <_puts_r+0xaa>

00000dfa <puts>:
     dfa:	1ffff797          	auipc	a5,0x1ffff
     dfe:	29678793          	addi	a5,a5,662 # 20000090 <_impure_ptr>
     e02:	85aa                	mv	a1,a0
     e04:	4388                	lw	a0,0(a5)
     e06:	b72d                	j	d30 <_puts_r>

00000e08 <__swbuf_r>:
     e08:	1131                	addi	sp,sp,-20
     e0a:	c622                	sw	s0,12(sp)
     e0c:	c426                	sw	s1,8(sp)
     e0e:	c806                	sw	ra,16(sp)
     e10:	87aa                	mv	a5,a0
     e12:	84ae                	mv	s1,a1
     e14:	8432                	mv	s0,a2
     e16:	c511                	beqz	a0,e22 <__swbuf_r+0x1a>
     e18:	4d18                	lw	a4,24(a0)
     e1a:	e701                	bnez	a4,e22 <__swbuf_r+0x1a>
     e1c:	c02a                	sw	a0,0(sp)
     e1e:	2169                	jal	12a8 <__sinit>
     e20:	4782                	lw	a5,0(sp)
     e22:	00001717          	auipc	a4,0x1
     e26:	1ae70713          	addi	a4,a4,430 # 1fd0 <__sf_fake_stdin>
     e2a:	06e41863          	bne	s0,a4,e9a <__swbuf_r+0x92>
     e2e:	43c0                	lw	s0,4(a5)
     e30:	4c18                	lw	a4,24(s0)
     e32:	c418                	sw	a4,8(s0)
     e34:	245a                	lhu	a4,12(s0)
     e36:	8b21                	andi	a4,a4,8
     e38:	c349                	beqz	a4,eba <__swbuf_r+0xb2>
     e3a:	4818                	lw	a4,16(s0)
     e3c:	cf3d                	beqz	a4,eba <__swbuf_r+0xb2>
     e3e:	4818                	lw	a4,16(s0)
     e40:	4008                	lw	a0,0(s0)
     e42:	0ff4f693          	andi	a3,s1,255
     e46:	0ff4f493          	andi	s1,s1,255
     e4a:	8d19                	sub	a0,a0,a4
     e4c:	4858                	lw	a4,20(s0)
     e4e:	00e54a63          	blt	a0,a4,e62 <__swbuf_r+0x5a>
     e52:	853e                	mv	a0,a5
     e54:	85a2                	mv	a1,s0
     e56:	c236                	sw	a3,4(sp)
     e58:	c03e                	sw	a5,0(sp)
     e5a:	2e0d                	jal	118c <_fflush_r>
     e5c:	4782                	lw	a5,0(sp)
     e5e:	4692                	lw	a3,4(sp)
     e60:	e13d                	bnez	a0,ec6 <__swbuf_r+0xbe>
     e62:	4418                	lw	a4,8(s0)
     e64:	0505                	addi	a0,a0,1
     e66:	177d                	addi	a4,a4,-1
     e68:	c418                	sw	a4,8(s0)
     e6a:	4018                	lw	a4,0(s0)
     e6c:	00170613          	addi	a2,a4,1
     e70:	c010                	sw	a2,0(s0)
     e72:	a314                	sb	a3,0(a4)
     e74:	4858                	lw	a4,20(s0)
     e76:	00a70863          	beq	a4,a0,e86 <__swbuf_r+0x7e>
     e7a:	245a                	lhu	a4,12(s0)
     e7c:	8b05                	andi	a4,a4,1
     e7e:	cb01                	beqz	a4,e8e <__swbuf_r+0x86>
     e80:	4729                	li	a4,10
     e82:	00e49663          	bne	s1,a4,e8e <__swbuf_r+0x86>
     e86:	85a2                	mv	a1,s0
     e88:	853e                	mv	a0,a5
     e8a:	2609                	jal	118c <_fflush_r>
     e8c:	ed0d                	bnez	a0,ec6 <__swbuf_r+0xbe>
     e8e:	40c2                	lw	ra,16(sp)
     e90:	4432                	lw	s0,12(sp)
     e92:	8526                	mv	a0,s1
     e94:	44a2                	lw	s1,8(sp)
     e96:	0151                	addi	sp,sp,20
     e98:	8082                	ret
     e9a:	00001717          	auipc	a4,0x1
     e9e:	15670713          	addi	a4,a4,342 # 1ff0 <__sf_fake_stdout>
     ea2:	00e41463          	bne	s0,a4,eaa <__swbuf_r+0xa2>
     ea6:	4780                	lw	s0,8(a5)
     ea8:	b761                	j	e30 <__swbuf_r+0x28>
     eaa:	00001717          	auipc	a4,0x1
     eae:	10670713          	addi	a4,a4,262 # 1fb0 <__sf_fake_stderr>
     eb2:	f6e41fe3          	bne	s0,a4,e30 <__swbuf_r+0x28>
     eb6:	47c0                	lw	s0,12(a5)
     eb8:	bfa5                	j	e30 <__swbuf_r+0x28>
     eba:	853e                	mv	a0,a5
     ebc:	85a2                	mv	a1,s0
     ebe:	c03e                	sw	a5,0(sp)
     ec0:	2029                	jal	eca <__swsetup_r>
     ec2:	4782                	lw	a5,0(sp)
     ec4:	dd2d                	beqz	a0,e3e <__swbuf_r+0x36>
     ec6:	54fd                	li	s1,-1
     ec8:	b7d9                	j	e8e <__swbuf_r+0x86>

00000eca <__swsetup_r>:
     eca:	1141                	addi	sp,sp,-16
     ecc:	1ffff797          	auipc	a5,0x1ffff
     ed0:	1c478793          	addi	a5,a5,452 # 20000090 <_impure_ptr>
     ed4:	c226                	sw	s1,4(sp)
     ed6:	4384                	lw	s1,0(a5)
     ed8:	c422                	sw	s0,8(sp)
     eda:	c606                	sw	ra,12(sp)
     edc:	86aa                	mv	a3,a0
     ede:	842e                	mv	s0,a1
     ee0:	c499                	beqz	s1,eee <__swsetup_r+0x24>
     ee2:	4c9c                	lw	a5,24(s1)
     ee4:	e789                	bnez	a5,eee <__swsetup_r+0x24>
     ee6:	c02a                	sw	a0,0(sp)
     ee8:	8526                	mv	a0,s1
     eea:	2e7d                	jal	12a8 <__sinit>
     eec:	4682                	lw	a3,0(sp)
     eee:	00001797          	auipc	a5,0x1
     ef2:	0e278793          	addi	a5,a5,226 # 1fd0 <__sf_fake_stdin>
     ef6:	02f41963          	bne	s0,a5,f28 <__swsetup_r+0x5e>
     efa:	40c0                	lw	s0,4(s1)
     efc:	00c41703          	lh	a4,12(s0)
     f00:	01071793          	slli	a5,a4,0x10
     f04:	83c1                	srli	a5,a5,0x10
     f06:	0087f613          	andi	a2,a5,8
     f0a:	ea2d                	bnez	a2,f7c <__swsetup_r+0xb2>
     f0c:	0107f613          	andi	a2,a5,16
     f10:	ee05                	bnez	a2,f48 <__swsetup_r+0x7e>
     f12:	47a5                	li	a5,9
     f14:	c29c                	sw	a5,0(a3)
     f16:	04076713          	ori	a4,a4,64
     f1a:	a45a                	sh	a4,12(s0)
     f1c:	557d                	li	a0,-1
     f1e:	40b2                	lw	ra,12(sp)
     f20:	4422                	lw	s0,8(sp)
     f22:	4492                	lw	s1,4(sp)
     f24:	0141                	addi	sp,sp,16
     f26:	8082                	ret
     f28:	00001797          	auipc	a5,0x1
     f2c:	0c878793          	addi	a5,a5,200 # 1ff0 <__sf_fake_stdout>
     f30:	00f41463          	bne	s0,a5,f38 <__swsetup_r+0x6e>
     f34:	4480                	lw	s0,8(s1)
     f36:	b7d9                	j	efc <__swsetup_r+0x32>
     f38:	00001797          	auipc	a5,0x1
     f3c:	07878793          	addi	a5,a5,120 # 1fb0 <__sf_fake_stderr>
     f40:	faf41ee3          	bne	s0,a5,efc <__swsetup_r+0x32>
     f44:	44c0                	lw	s0,12(s1)
     f46:	bf5d                	j	efc <__swsetup_r+0x32>
     f48:	8b91                	andi	a5,a5,4
     f4a:	c78d                	beqz	a5,f74 <__swsetup_r+0xaa>
     f4c:	584c                	lw	a1,52(s0)
     f4e:	c999                	beqz	a1,f64 <__swsetup_r+0x9a>
     f50:	04440793          	addi	a5,s0,68
     f54:	00f58663          	beq	a1,a5,f60 <__swsetup_r+0x96>
     f58:	8536                	mv	a0,a3
     f5a:	c036                	sw	a3,0(sp)
     f5c:	2345                	jal	14fc <_free_r>
     f5e:	4682                	lw	a3,0(sp)
     f60:	02042a23          	sw	zero,52(s0)
     f64:	245e                	lhu	a5,12(s0)
     f66:	00042223          	sw	zero,4(s0)
     f6a:	fdb7f793          	andi	a5,a5,-37
     f6e:	a45e                	sh	a5,12(s0)
     f70:	481c                	lw	a5,16(s0)
     f72:	c01c                	sw	a5,0(s0)
     f74:	245e                	lhu	a5,12(s0)
     f76:	0087e793          	ori	a5,a5,8
     f7a:	a45e                	sh	a5,12(s0)
     f7c:	481c                	lw	a5,16(s0)
     f7e:	eb99                	bnez	a5,f94 <__swsetup_r+0xca>
     f80:	245e                	lhu	a5,12(s0)
     f82:	20000713          	li	a4,512
     f86:	2807f793          	andi	a5,a5,640
     f8a:	00e78563          	beq	a5,a4,f94 <__swsetup_r+0xca>
     f8e:	85a2                	mv	a1,s0
     f90:	8536                	mv	a0,a3
     f92:	29f9                	jal	1470 <__smakebuf_r>
     f94:	245e                	lhu	a5,12(s0)
     f96:	0017f713          	andi	a4,a5,1
     f9a:	c31d                	beqz	a4,fc0 <__swsetup_r+0xf6>
     f9c:	485c                	lw	a5,20(s0)
     f9e:	00042423          	sw	zero,8(s0)
     fa2:	40f007b3          	neg	a5,a5
     fa6:	cc1c                	sw	a5,24(s0)
     fa8:	481c                	lw	a5,16(s0)
     faa:	4501                	li	a0,0
     fac:	fbad                	bnez	a5,f1e <__swsetup_r+0x54>
     fae:	00c41783          	lh	a5,12(s0)
     fb2:	0807f713          	andi	a4,a5,128
     fb6:	d725                	beqz	a4,f1e <__swsetup_r+0x54>
     fb8:	0407e793          	ori	a5,a5,64
     fbc:	a45e                	sh	a5,12(s0)
     fbe:	bfb9                	j	f1c <__swsetup_r+0x52>
     fc0:	8b89                	andi	a5,a5,2
     fc2:	4701                	li	a4,0
     fc4:	e391                	bnez	a5,fc8 <__swsetup_r+0xfe>
     fc6:	4858                	lw	a4,20(s0)
     fc8:	c418                	sw	a4,8(s0)
     fca:	bff9                	j	fa8 <__swsetup_r+0xde>

00000fcc <__register_exitproc>:
     fcc:	1ffff797          	auipc	a5,0x1ffff
     fd0:	0cc78793          	addi	a5,a5,204 # 20000098 <_edata>
     fd4:	439c                	lw	a5,0(a5)
     fd6:	83aa                	mv	t2,a0
     fd8:	e38d                	bnez	a5,ffa <__register_exitproc+0x2e>
     fda:	da418713          	addi	a4,gp,-604 # 20000634 <_global_atexit0>
     fde:	1ffff797          	auipc	a5,0x1ffff
     fe2:	0ae7ad23          	sw	a4,186(a5) # 20000098 <_edata>
     fe6:	fffff517          	auipc	a0,0xfffff
     fea:	01a50513          	addi	a0,a0,26 # 0 <_sinit>
     fee:	87ba                	mv	a5,a4
     ff0:	c509                	beqz	a0,ffa <__register_exitproc+0x2e>
     ff2:	411c                	lw	a5,0(a0)
     ff4:	e2f1a623          	sw	a5,-468(gp) # 200006bc <_global_atexit0+0x88>
     ff8:	87ba                	mv	a5,a4
     ffa:	43d8                	lw	a4,4(a5)
     ffc:	437d                	li	t1,31
     ffe:	557d                	li	a0,-1
    1000:	04e34663          	blt	t1,a4,104c <__register_exitproc+0x80>
    1004:	02038d63          	beqz	t2,103e <__register_exitproc+0x72>
    1008:	0887a303          	lw	t1,136(a5)
    100c:	04030063          	beqz	t1,104c <__register_exitproc+0x80>
    1010:	00271293          	slli	t0,a4,0x2
    1014:	929a                	add	t0,t0,t1
    1016:	00c2a023          	sw	a2,0(t0)
    101a:	10032503          	lw	a0,256(t1)
    101e:	4605                	li	a2,1
    1020:	00e61633          	sll	a2,a2,a4
    1024:	8d51                	or	a0,a0,a2
    1026:	10a32023          	sw	a0,256(t1)
    102a:	08d2a023          	sw	a3,128(t0)
    102e:	4689                	li	a3,2
    1030:	00d39763          	bne	t2,a3,103e <__register_exitproc+0x72>
    1034:	10432683          	lw	a3,260(t1)
    1038:	8e55                	or	a2,a2,a3
    103a:	10c32223          	sw	a2,260(t1)
    103e:	00170693          	addi	a3,a4,1
    1042:	070a                	slli	a4,a4,0x2
    1044:	c3d4                	sw	a3,4(a5)
    1046:	97ba                	add	a5,a5,a4
    1048:	c78c                	sw	a1,8(a5)
    104a:	4501                	li	a0,0
    104c:	8082                	ret

0000104e <register_fini>:
    104e:	fffff797          	auipc	a5,0xfffff
    1052:	fb278793          	addi	a5,a5,-78 # 0 <_sinit>
    1056:	c791                	beqz	a5,1062 <register_fini+0x14>
    1058:	00000517          	auipc	a0,0x0
    105c:	be850513          	addi	a0,a0,-1048 # c40 <__libc_fini_array>
    1060:	bed9                	j	c36 <atexit>
    1062:	8082                	ret

00001064 <__sflush_r>:
    1064:	25d6                	lhu	a3,12(a1)
    1066:	1131                	addi	sp,sp,-20
    1068:	c622                	sw	s0,12(sp)
    106a:	c806                	sw	ra,16(sp)
    106c:	c426                	sw	s1,8(sp)
    106e:	0086f713          	andi	a4,a3,8
    1072:	87aa                	mv	a5,a0
    1074:	842e                	mv	s0,a1
    1076:	eb71                	bnez	a4,114a <__sflush_r+0xe6>
    1078:	41d8                	lw	a4,4(a1)
    107a:	00e04b63          	bgtz	a4,1090 <__sflush_r+0x2c>
    107e:	41b8                	lw	a4,64(a1)
    1080:	00e04863          	bgtz	a4,1090 <__sflush_r+0x2c>
    1084:	4501                	li	a0,0
    1086:	40c2                	lw	ra,16(sp)
    1088:	4432                	lw	s0,12(sp)
    108a:	44a2                	lw	s1,8(sp)
    108c:	0151                	addi	sp,sp,20
    108e:	8082                	ret
    1090:	5458                	lw	a4,44(s0)
    1092:	db6d                	beqz	a4,1084 <__sflush_r+0x20>
    1094:	4384                	lw	s1,0(a5)
    1096:	01369613          	slli	a2,a3,0x13
    109a:	0007a023          	sw	zero,0(a5)
    109e:	06065c63          	bgez	a2,1116 <__sflush_r+0xb2>
    10a2:	4870                	lw	a2,84(s0)
    10a4:	245a                	lhu	a4,12(s0)
    10a6:	8b11                	andi	a4,a4,4
    10a8:	c719                	beqz	a4,10b6 <__sflush_r+0x52>
    10aa:	4058                	lw	a4,4(s0)
    10ac:	8e19                	sub	a2,a2,a4
    10ae:	5858                	lw	a4,52(s0)
    10b0:	c319                	beqz	a4,10b6 <__sflush_r+0x52>
    10b2:	4038                	lw	a4,64(s0)
    10b4:	8e19                	sub	a2,a2,a4
    10b6:	5458                	lw	a4,44(s0)
    10b8:	500c                	lw	a1,32(s0)
    10ba:	4681                	li	a3,0
    10bc:	853e                	mv	a0,a5
    10be:	c03e                	sw	a5,0(sp)
    10c0:	9702                	jalr	a4
    10c2:	577d                	li	a4,-1
    10c4:	2456                	lhu	a3,12(s0)
    10c6:	4782                	lw	a5,0(sp)
    10c8:	00e51d63          	bne	a0,a4,10e2 <__sflush_r+0x7e>
    10cc:	4390                	lw	a2,0(a5)
    10ce:	4775                	li	a4,29
    10d0:	06c76863          	bltu	a4,a2,1140 <__sflush_r+0xdc>
    10d4:	20400737          	lui	a4,0x20400
    10d8:	0705                	addi	a4,a4,1
    10da:	00c75733          	srl	a4,a4,a2
    10de:	8b05                	andi	a4,a4,1
    10e0:	c325                	beqz	a4,1140 <__sflush_r+0xdc>
    10e2:	4818                	lw	a4,16(s0)
    10e4:	00042223          	sw	zero,4(s0)
    10e8:	c018                	sw	a4,0(s0)
    10ea:	01369713          	slli	a4,a3,0x13
    10ee:	00075863          	bgez	a4,10fe <__sflush_r+0x9a>
    10f2:	577d                	li	a4,-1
    10f4:	00e51463          	bne	a0,a4,10fc <__sflush_r+0x98>
    10f8:	4398                	lw	a4,0(a5)
    10fa:	e311                	bnez	a4,10fe <__sflush_r+0x9a>
    10fc:	c868                	sw	a0,84(s0)
    10fe:	584c                	lw	a1,52(s0)
    1100:	c384                	sw	s1,0(a5)
    1102:	d1c9                	beqz	a1,1084 <__sflush_r+0x20>
    1104:	04440713          	addi	a4,s0,68
    1108:	00e58463          	beq	a1,a4,1110 <__sflush_r+0xac>
    110c:	853e                	mv	a0,a5
    110e:	26fd                	jal	14fc <_free_r>
    1110:	02042a23          	sw	zero,52(s0)
    1114:	bf85                	j	1084 <__sflush_r+0x20>
    1116:	500c                	lw	a1,32(s0)
    1118:	4601                	li	a2,0
    111a:	853e                	mv	a0,a5
    111c:	4685                	li	a3,1
    111e:	c03e                	sw	a5,0(sp)
    1120:	9702                	jalr	a4
    1122:	577d                	li	a4,-1
    1124:	862a                	mv	a2,a0
    1126:	4782                	lw	a5,0(sp)
    1128:	f6e51ee3          	bne	a0,a4,10a4 <__sflush_r+0x40>
    112c:	4398                	lw	a4,0(a5)
    112e:	db3d                	beqz	a4,10a4 <__sflush_r+0x40>
    1130:	46f5                	li	a3,29
    1132:	00d70563          	beq	a4,a3,113c <__sflush_r+0xd8>
    1136:	46d9                	li	a3,22
    1138:	04d71263          	bne	a4,a3,117c <__sflush_r+0x118>
    113c:	c384                	sw	s1,0(a5)
    113e:	b799                	j	1084 <__sflush_r+0x20>
    1140:	0406e693          	ori	a3,a3,64
    1144:	a456                	sh	a3,12(s0)
    1146:	557d                	li	a0,-1
    1148:	bf3d                	j	1086 <__sflush_r+0x22>
    114a:	4998                	lw	a4,16(a1)
    114c:	df05                	beqz	a4,1084 <__sflush_r+0x20>
    114e:	4184                	lw	s1,0(a1)
    1150:	8a8d                	andi	a3,a3,3
    1152:	c198                	sw	a4,0(a1)
    1154:	8c99                	sub	s1,s1,a4
    1156:	4601                	li	a2,0
    1158:	e291                	bnez	a3,115c <__sflush_r+0xf8>
    115a:	49d0                	lw	a2,20(a1)
    115c:	c410                	sw	a2,8(s0)
    115e:	f29053e3          	blez	s1,1084 <__sflush_r+0x20>
    1162:	02842303          	lw	t1,40(s0)
    1166:	500c                	lw	a1,32(s0)
    1168:	863a                	mv	a2,a4
    116a:	853e                	mv	a0,a5
    116c:	86a6                	mv	a3,s1
    116e:	c23a                	sw	a4,4(sp)
    1170:	c03e                	sw	a5,0(sp)
    1172:	9302                	jalr	t1
    1174:	4782                	lw	a5,0(sp)
    1176:	4712                	lw	a4,4(sp)
    1178:	00a04763          	bgtz	a0,1186 <__sflush_r+0x122>
    117c:	245e                	lhu	a5,12(s0)
    117e:	0407e793          	ori	a5,a5,64
    1182:	a45e                	sh	a5,12(s0)
    1184:	b7c9                	j	1146 <__sflush_r+0xe2>
    1186:	972a                	add	a4,a4,a0
    1188:	8c89                	sub	s1,s1,a0
    118a:	bfd1                	j	115e <__sflush_r+0xfa>

0000118c <_fflush_r>:
    118c:	499c                	lw	a5,16(a1)
    118e:	cfb9                	beqz	a5,11ec <_fflush_r+0x60>
    1190:	1141                	addi	sp,sp,-16
    1192:	c422                	sw	s0,8(sp)
    1194:	c606                	sw	ra,12(sp)
    1196:	842a                	mv	s0,a0
    1198:	c511                	beqz	a0,11a4 <_fflush_r+0x18>
    119a:	4d1c                	lw	a5,24(a0)
    119c:	e781                	bnez	a5,11a4 <_fflush_r+0x18>
    119e:	c02e                	sw	a1,0(sp)
    11a0:	2221                	jal	12a8 <__sinit>
    11a2:	4582                	lw	a1,0(sp)
    11a4:	00001797          	auipc	a5,0x1
    11a8:	e2c78793          	addi	a5,a5,-468 # 1fd0 <__sf_fake_stdin>
    11ac:	00f59b63          	bne	a1,a5,11c2 <_fflush_r+0x36>
    11b0:	404c                	lw	a1,4(s0)
    11b2:	00c59783          	lh	a5,12(a1)
    11b6:	c795                	beqz	a5,11e2 <_fflush_r+0x56>
    11b8:	8522                	mv	a0,s0
    11ba:	4422                	lw	s0,8(sp)
    11bc:	40b2                	lw	ra,12(sp)
    11be:	0141                	addi	sp,sp,16
    11c0:	b555                	j	1064 <__sflush_r>
    11c2:	00001797          	auipc	a5,0x1
    11c6:	e2e78793          	addi	a5,a5,-466 # 1ff0 <__sf_fake_stdout>
    11ca:	00f59463          	bne	a1,a5,11d2 <_fflush_r+0x46>
    11ce:	440c                	lw	a1,8(s0)
    11d0:	b7cd                	j	11b2 <_fflush_r+0x26>
    11d2:	00001797          	auipc	a5,0x1
    11d6:	dde78793          	addi	a5,a5,-546 # 1fb0 <__sf_fake_stderr>
    11da:	fcf59ce3          	bne	a1,a5,11b2 <_fflush_r+0x26>
    11de:	444c                	lw	a1,12(s0)
    11e0:	bfc9                	j	11b2 <_fflush_r+0x26>
    11e2:	40b2                	lw	ra,12(sp)
    11e4:	4422                	lw	s0,8(sp)
    11e6:	4501                	li	a0,0
    11e8:	0141                	addi	sp,sp,16
    11ea:	8082                	ret
    11ec:	4501                	li	a0,0
    11ee:	8082                	ret

000011f0 <std>:
    11f0:	1151                	addi	sp,sp,-12
    11f2:	c222                	sw	s0,4(sp)
    11f4:	c406                	sw	ra,8(sp)
    11f6:	842a                	mv	s0,a0
    11f8:	a54e                	sh	a1,12(a0)
    11fa:	a572                	sh	a2,14(a0)
    11fc:	00052023          	sw	zero,0(a0)
    1200:	00052223          	sw	zero,4(a0)
    1204:	00052423          	sw	zero,8(a0)
    1208:	06052223          	sw	zero,100(a0)
    120c:	00052823          	sw	zero,16(a0)
    1210:	00052a23          	sw	zero,20(a0)
    1214:	00052c23          	sw	zero,24(a0)
    1218:	4621                	li	a2,8
    121a:	4581                	li	a1,0
    121c:	05c50513          	addi	a0,a0,92
    1220:	f13fe0ef          	jal	ra,132 <memset>
    1224:	00001797          	auipc	a5,0x1
    1228:	b7278793          	addi	a5,a5,-1166 # 1d96 <__sread>
    122c:	d05c                	sw	a5,36(s0)
    122e:	00001797          	auipc	a5,0x1
    1232:	b9478793          	addi	a5,a5,-1132 # 1dc2 <__swrite>
    1236:	d41c                	sw	a5,40(s0)
    1238:	00001797          	auipc	a5,0x1
    123c:	bd278793          	addi	a5,a5,-1070 # 1e0a <__sseek>
    1240:	d45c                	sw	a5,44(s0)
    1242:	00001797          	auipc	a5,0x1
    1246:	bf878793          	addi	a5,a5,-1032 # 1e3a <__sclose>
    124a:	d000                	sw	s0,32(s0)
    124c:	d81c                	sw	a5,48(s0)
    124e:	40a2                	lw	ra,8(sp)
    1250:	4412                	lw	s0,4(sp)
    1252:	0131                	addi	sp,sp,12
    1254:	8082                	ret

00001256 <_cleanup_r>:
    1256:	00000597          	auipc	a1,0x0
    125a:	f3658593          	addi	a1,a1,-202 # 118c <_fflush_r>
    125e:	aa89                	j	13b0 <_fwalk_reent>

00001260 <__sfmoreglue>:
    1260:	1141                	addi	sp,sp,-16
    1262:	fff58613          	addi	a2,a1,-1
    1266:	c422                	sw	s0,8(sp)
    1268:	00161413          	slli	s0,a2,0x1
    126c:	9432                	add	s0,s0,a2
    126e:	040a                	slli	s0,s0,0x2
    1270:	9432                	add	s0,s0,a2
    1272:	040e                	slli	s0,s0,0x3
    1274:	c02e                	sw	a1,0(sp)
    1276:	07440593          	addi	a1,s0,116
    127a:	c226                	sw	s1,4(sp)
    127c:	c606                	sw	ra,12(sp)
    127e:	261d                	jal	15a4 <_malloc_r>
    1280:	84aa                	mv	s1,a0
    1282:	cd09                	beqz	a0,129c <__sfmoreglue+0x3c>
    1284:	4782                	lw	a5,0(sp)
    1286:	00052023          	sw	zero,0(a0)
    128a:	0531                	addi	a0,a0,12
    128c:	fef52c23          	sw	a5,-8(a0)
    1290:	c488                	sw	a0,8(s1)
    1292:	06840613          	addi	a2,s0,104
    1296:	4581                	li	a1,0
    1298:	e9bfe0ef          	jal	ra,132 <memset>
    129c:	40b2                	lw	ra,12(sp)
    129e:	4422                	lw	s0,8(sp)
    12a0:	8526                	mv	a0,s1
    12a2:	4492                	lw	s1,4(sp)
    12a4:	0141                	addi	sp,sp,16
    12a6:	8082                	ret

000012a8 <__sinit>:
    12a8:	4d1c                	lw	a5,24(a0)
    12aa:	e3bd                	bnez	a5,1310 <__sinit+0x68>
    12ac:	1151                	addi	sp,sp,-12
    12ae:	c406                	sw	ra,8(sp)
    12b0:	c222                	sw	s0,4(sp)
    12b2:	00000797          	auipc	a5,0x0
    12b6:	fa478793          	addi	a5,a5,-92 # 1256 <_cleanup_r>
    12ba:	d51c                	sw	a5,40(a0)
    12bc:	1ffff797          	auipc	a5,0x1ffff
    12c0:	dd878793          	addi	a5,a5,-552 # 20000094 <_global_impure_ptr>
    12c4:	439c                	lw	a5,0(a5)
    12c6:	04052423          	sw	zero,72(a0)
    12ca:	04052623          	sw	zero,76(a0)
    12ce:	04052823          	sw	zero,80(a0)
    12d2:	00f51463          	bne	a0,a5,12da <__sinit+0x32>
    12d6:	4785                	li	a5,1
    12d8:	cd1c                	sw	a5,24(a0)
    12da:	842a                	mv	s0,a0
    12dc:	281d                	jal	1312 <__sfp>
    12de:	c048                	sw	a0,4(s0)
    12e0:	8522                	mv	a0,s0
    12e2:	2805                	jal	1312 <__sfp>
    12e4:	c408                	sw	a0,8(s0)
    12e6:	8522                	mv	a0,s0
    12e8:	202d                	jal	1312 <__sfp>
    12ea:	c448                	sw	a0,12(s0)
    12ec:	4048                	lw	a0,4(s0)
    12ee:	4601                	li	a2,0
    12f0:	4591                	li	a1,4
    12f2:	3dfd                	jal	11f0 <std>
    12f4:	4408                	lw	a0,8(s0)
    12f6:	4605                	li	a2,1
    12f8:	45a5                	li	a1,9
    12fa:	3ddd                	jal	11f0 <std>
    12fc:	4448                	lw	a0,12(s0)
    12fe:	4609                	li	a2,2
    1300:	45c9                	li	a1,18
    1302:	35fd                	jal	11f0 <std>
    1304:	4785                	li	a5,1
    1306:	cc1c                	sw	a5,24(s0)
    1308:	40a2                	lw	ra,8(sp)
    130a:	4412                	lw	s0,4(sp)
    130c:	0131                	addi	sp,sp,12
    130e:	8082                	ret
    1310:	8082                	ret

00001312 <__sfp>:
    1312:	1141                	addi	sp,sp,-16
    1314:	1ffff797          	auipc	a5,0x1ffff
    1318:	d8078793          	addi	a5,a5,-640 # 20000094 <_global_impure_ptr>
    131c:	c422                	sw	s0,8(sp)
    131e:	4380                	lw	s0,0(a5)
    1320:	c226                	sw	s1,4(sp)
    1322:	c606                	sw	ra,12(sp)
    1324:	4c1c                	lw	a5,24(s0)
    1326:	84aa                	mv	s1,a0
    1328:	e399                	bnez	a5,132e <__sfp+0x1c>
    132a:	8522                	mv	a0,s0
    132c:	3fb5                	jal	12a8 <__sinit>
    132e:	04840793          	addi	a5,s0,72
    1332:	4780                	lw	s0,8(a5)
    1334:	43d8                	lw	a4,4(a5)
    1336:	177d                	addi	a4,a4,-1
    1338:	00075663          	bgez	a4,1344 <__sfp+0x32>
    133c:	4398                	lw	a4,0(a5)
    133e:	cf31                	beqz	a4,139a <__sfp+0x88>
    1340:	439c                	lw	a5,0(a5)
    1342:	bfc5                	j	1332 <__sfp+0x20>
    1344:	00c41683          	lh	a3,12(s0)
    1348:	e6b1                	bnez	a3,1394 <__sfp+0x82>
    134a:	77c1                	lui	a5,0xffff0
    134c:	0785                	addi	a5,a5,1
    134e:	06042223          	sw	zero,100(s0)
    1352:	00042023          	sw	zero,0(s0)
    1356:	00042223          	sw	zero,4(s0)
    135a:	00042423          	sw	zero,8(s0)
    135e:	c45c                	sw	a5,12(s0)
    1360:	00042823          	sw	zero,16(s0)
    1364:	00042a23          	sw	zero,20(s0)
    1368:	00042c23          	sw	zero,24(s0)
    136c:	4621                	li	a2,8
    136e:	4581                	li	a1,0
    1370:	05c40513          	addi	a0,s0,92
    1374:	dbffe0ef          	jal	ra,132 <memset>
    1378:	02042a23          	sw	zero,52(s0)
    137c:	02042c23          	sw	zero,56(s0)
    1380:	04042423          	sw	zero,72(s0)
    1384:	04042623          	sw	zero,76(s0)
    1388:	8522                	mv	a0,s0
    138a:	40b2                	lw	ra,12(sp)
    138c:	4422                	lw	s0,8(sp)
    138e:	4492                	lw	s1,4(sp)
    1390:	0141                	addi	sp,sp,16
    1392:	8082                	ret
    1394:	06840413          	addi	s0,s0,104
    1398:	bf79                	j	1336 <__sfp+0x24>
    139a:	4591                	li	a1,4
    139c:	8526                	mv	a0,s1
    139e:	c03e                	sw	a5,0(sp)
    13a0:	35c1                	jal	1260 <__sfmoreglue>
    13a2:	4782                	lw	a5,0(sp)
    13a4:	c388                	sw	a0,0(a5)
    13a6:	fd49                	bnez	a0,1340 <__sfp+0x2e>
    13a8:	47b1                	li	a5,12
    13aa:	c09c                	sw	a5,0(s1)
    13ac:	4401                	li	s0,0
    13ae:	bfe9                	j	1388 <__sfp+0x76>

000013b0 <_fwalk_reent>:
    13b0:	1111                	addi	sp,sp,-28
    13b2:	ca22                	sw	s0,20(sp)
    13b4:	cc06                	sw	ra,24(sp)
    13b6:	c826                	sw	s1,16(sp)
    13b8:	86aa                	mv	a3,a0
    13ba:	862e                	mv	a2,a1
    13bc:	04850413          	addi	s0,a0,72
    13c0:	4781                	li	a5,0
    13c2:	e419                	bnez	s0,13d0 <_fwalk_reent+0x20>
    13c4:	40e2                	lw	ra,24(sp)
    13c6:	4452                	lw	s0,20(sp)
    13c8:	44c2                	lw	s1,16(sp)
    13ca:	853e                	mv	a0,a5
    13cc:	0171                	addi	sp,sp,28
    13ce:	8082                	ret
    13d0:	4404                	lw	s1,8(s0)
    13d2:	4058                	lw	a4,4(s0)
    13d4:	177d                	addi	a4,a4,-1
    13d6:	00075463          	bgez	a4,13de <_fwalk_reent+0x2e>
    13da:	4000                	lw	s0,0(s0)
    13dc:	b7dd                	j	13c2 <_fwalk_reent+0x12>
    13de:	24ca                	lhu	a0,12(s1)
    13e0:	4585                	li	a1,1
    13e2:	02a5f363          	bgeu	a1,a0,1408 <_fwalk_reent+0x58>
    13e6:	00e49503          	lh	a0,14(s1)
    13ea:	55fd                	li	a1,-1
    13ec:	00b50e63          	beq	a0,a1,1408 <_fwalk_reent+0x58>
    13f0:	8536                	mv	a0,a3
    13f2:	85a6                	mv	a1,s1
    13f4:	c63e                	sw	a5,12(sp)
    13f6:	c43a                	sw	a4,8(sp)
    13f8:	c236                	sw	a3,4(sp)
    13fa:	c032                	sw	a2,0(sp)
    13fc:	9602                	jalr	a2
    13fe:	47b2                	lw	a5,12(sp)
    1400:	4722                	lw	a4,8(sp)
    1402:	4692                	lw	a3,4(sp)
    1404:	4602                	lw	a2,0(sp)
    1406:	8fc9                	or	a5,a5,a0
    1408:	06848493          	addi	s1,s1,104
    140c:	b7e1                	j	13d4 <_fwalk_reent+0x24>

0000140e <__swhatbuf_r>:
    140e:	87ae                	mv	a5,a1
    1410:	00e59583          	lh	a1,14(a1)
    1414:	7159                	addi	sp,sp,-112
    1416:	d2a6                	sw	s1,100(sp)
    1418:	d686                	sw	ra,108(sp)
    141a:	d4a2                	sw	s0,104(sp)
    141c:	84b2                	mv	s1,a2
    141e:	0005db63          	bgez	a1,1434 <__swhatbuf_r+0x26>
    1422:	27de                	lhu	a5,12(a5)
    1424:	0006a023          	sw	zero,0(a3) # 40021000 <__global_pointer$+0x20020770>
    1428:	0807f793          	andi	a5,a5,128
    142c:	eb8d                	bnez	a5,145e <__swhatbuf_r+0x50>
    142e:	40000793          	li	a5,1024
    1432:	a805                	j	1462 <__swhatbuf_r+0x54>
    1434:	00f10413          	addi	s0,sp,15
    1438:	9861                	andi	s0,s0,-8
    143a:	8622                	mv	a2,s0
    143c:	c236                	sw	a3,4(sp)
    143e:	c03e                	sw	a5,0(sp)
    1440:	257000ef          	jal	ra,1e96 <_fstat_r>
    1444:	4782                	lw	a5,0(sp)
    1446:	4692                	lw	a3,4(sp)
    1448:	fc054de3          	bltz	a0,1422 <__swhatbuf_r+0x14>
    144c:	4058                	lw	a4,4(s0)
    144e:	67bd                	lui	a5,0xf
    1450:	8ff9                	and	a5,a5,a4
    1452:	7779                	lui	a4,0xffffe
    1454:	97ba                	add	a5,a5,a4
    1456:	0017b793          	seqz	a5,a5
    145a:	c29c                	sw	a5,0(a3)
    145c:	bfc9                	j	142e <__swhatbuf_r+0x20>
    145e:	04000793          	li	a5,64
    1462:	50b6                	lw	ra,108(sp)
    1464:	5426                	lw	s0,104(sp)
    1466:	c09c                	sw	a5,0(s1)
    1468:	4501                	li	a0,0
    146a:	5496                	lw	s1,100(sp)
    146c:	6165                	addi	sp,sp,112
    146e:	8082                	ret

00001470 <__smakebuf_r>:
    1470:	25da                	lhu	a4,12(a1)
    1472:	1121                	addi	sp,sp,-24
    1474:	c822                	sw	s0,16(sp)
    1476:	ca06                	sw	ra,20(sp)
    1478:	c626                	sw	s1,12(sp)
    147a:	8b09                	andi	a4,a4,2
    147c:	842e                	mv	s0,a1
    147e:	cf01                	beqz	a4,1496 <__smakebuf_r+0x26>
    1480:	04740793          	addi	a5,s0,71
    1484:	c01c                	sw	a5,0(s0)
    1486:	c81c                	sw	a5,16(s0)
    1488:	4785                	li	a5,1
    148a:	c85c                	sw	a5,20(s0)
    148c:	40d2                	lw	ra,20(sp)
    148e:	4442                	lw	s0,16(sp)
    1490:	44b2                	lw	s1,12(sp)
    1492:	0161                	addi	sp,sp,24
    1494:	8082                	ret
    1496:	0034                	addi	a3,sp,8
    1498:	0050                	addi	a2,sp,4
    149a:	84aa                	mv	s1,a0
    149c:	3f8d                	jal	140e <__swhatbuf_r>
    149e:	4592                	lw	a1,4(sp)
    14a0:	c02a                	sw	a0,0(sp)
    14a2:	8526                	mv	a0,s1
    14a4:	2201                	jal	15a4 <_malloc_r>
    14a6:	e919                	bnez	a0,14bc <__smakebuf_r+0x4c>
    14a8:	00c41783          	lh	a5,12(s0)
    14ac:	2007f713          	andi	a4,a5,512
    14b0:	ff71                	bnez	a4,148c <__smakebuf_r+0x1c>
    14b2:	9bf1                	andi	a5,a5,-4
    14b4:	0027e793          	ori	a5,a5,2
    14b8:	a45e                	sh	a5,12(s0)
    14ba:	b7d9                	j	1480 <__smakebuf_r+0x10>
    14bc:	00000717          	auipc	a4,0x0
    14c0:	d9a70713          	addi	a4,a4,-614 # 1256 <_cleanup_r>
    14c4:	d498                	sw	a4,40(s1)
    14c6:	245a                	lhu	a4,12(s0)
    14c8:	c008                	sw	a0,0(s0)
    14ca:	c808                	sw	a0,16(s0)
    14cc:	08076713          	ori	a4,a4,128
    14d0:	a45a                	sh	a4,12(s0)
    14d2:	4712                	lw	a4,4(sp)
    14d4:	c858                	sw	a4,20(s0)
    14d6:	4722                	lw	a4,8(sp)
    14d8:	cf01                	beqz	a4,14f0 <__smakebuf_r+0x80>
    14da:	00e41583          	lh	a1,14(s0)
    14de:	8526                	mv	a0,s1
    14e0:	1e1000ef          	jal	ra,1ec0 <_isatty_r>
    14e4:	c511                	beqz	a0,14f0 <__smakebuf_r+0x80>
    14e6:	245e                	lhu	a5,12(s0)
    14e8:	9bf1                	andi	a5,a5,-4
    14ea:	0017e793          	ori	a5,a5,1
    14ee:	a45e                	sh	a5,12(s0)
    14f0:	245e                	lhu	a5,12(s0)
    14f2:	4702                	lw	a4,0(sp)
    14f4:	00f764b3          	or	s1,a4,a5
    14f8:	a446                	sh	s1,12(s0)
    14fa:	bf49                	j	148c <__smakebuf_r+0x1c>

000014fc <_free_r>:
    14fc:	c1dd                	beqz	a1,15a2 <_free_r+0xa6>
    14fe:	ffc5a783          	lw	a5,-4(a1)
    1502:	1151                	addi	sp,sp,-12
    1504:	c222                	sw	s0,4(sp)
    1506:	c406                	sw	ra,8(sp)
    1508:	c026                	sw	s1,0(sp)
    150a:	ffc58413          	addi	s0,a1,-4
    150e:	0007d363          	bgez	a5,1514 <_free_r+0x18>
    1512:	943e                	add	s0,s0,a5
    1514:	84aa                	mv	s1,a0
    1516:	217000ef          	jal	ra,1f2c <__malloc_lock>
    151a:	80c18793          	addi	a5,gp,-2036 # 2000009c <__malloc_free_list>
    151e:	439c                	lw	a5,0(a5)
    1520:	ef81                	bnez	a5,1538 <_free_r+0x3c>
    1522:	00042223          	sw	zero,4(s0)
    1526:	8081a623          	sw	s0,-2036(gp) # 2000009c <__malloc_free_list>
    152a:	4412                	lw	s0,4(sp)
    152c:	40a2                	lw	ra,8(sp)
    152e:	8526                	mv	a0,s1
    1530:	4482                	lw	s1,0(sp)
    1532:	0131                	addi	sp,sp,12
    1534:	1fb0006f          	j	1f2e <__malloc_unlock>
    1538:	00f47e63          	bgeu	s0,a5,1554 <_free_r+0x58>
    153c:	4014                	lw	a3,0(s0)
    153e:	00d40733          	add	a4,s0,a3
    1542:	00e79663          	bne	a5,a4,154e <_free_r+0x52>
    1546:	4398                	lw	a4,0(a5)
    1548:	43dc                	lw	a5,4(a5)
    154a:	9736                	add	a4,a4,a3
    154c:	c018                	sw	a4,0(s0)
    154e:	c05c                	sw	a5,4(s0)
    1550:	bfd9                	j	1526 <_free_r+0x2a>
    1552:	87ba                	mv	a5,a4
    1554:	43d8                	lw	a4,4(a5)
    1556:	c319                	beqz	a4,155c <_free_r+0x60>
    1558:	fee47de3          	bgeu	s0,a4,1552 <_free_r+0x56>
    155c:	4394                	lw	a3,0(a5)
    155e:	00d78633          	add	a2,a5,a3
    1562:	00861f63          	bne	a2,s0,1580 <_free_r+0x84>
    1566:	4010                	lw	a2,0(s0)
    1568:	96b2                	add	a3,a3,a2
    156a:	c394                	sw	a3,0(a5)
    156c:	00d78633          	add	a2,a5,a3
    1570:	fac71de3          	bne	a4,a2,152a <_free_r+0x2e>
    1574:	4310                	lw	a2,0(a4)
    1576:	4358                	lw	a4,4(a4)
    1578:	96b2                	add	a3,a3,a2
    157a:	c394                	sw	a3,0(a5)
    157c:	c3d8                	sw	a4,4(a5)
    157e:	b775                	j	152a <_free_r+0x2e>
    1580:	00c47563          	bgeu	s0,a2,158a <_free_r+0x8e>
    1584:	47b1                	li	a5,12
    1586:	c09c                	sw	a5,0(s1)
    1588:	b74d                	j	152a <_free_r+0x2e>
    158a:	4010                	lw	a2,0(s0)
    158c:	00c406b3          	add	a3,s0,a2
    1590:	00d71663          	bne	a4,a3,159c <_free_r+0xa0>
    1594:	4314                	lw	a3,0(a4)
    1596:	4358                	lw	a4,4(a4)
    1598:	96b2                	add	a3,a3,a2
    159a:	c014                	sw	a3,0(s0)
    159c:	c058                	sw	a4,4(s0)
    159e:	c3c0                	sw	s0,4(a5)
    15a0:	b769                	j	152a <_free_r+0x2e>
    15a2:	8082                	ret

000015a4 <_malloc_r>:
    15a4:	1141                	addi	sp,sp,-16
    15a6:	c226                	sw	s1,4(sp)
    15a8:	00358493          	addi	s1,a1,3
    15ac:	98f1                	andi	s1,s1,-4
    15ae:	c606                	sw	ra,12(sp)
    15b0:	c422                	sw	s0,8(sp)
    15b2:	04a1                	addi	s1,s1,8
    15b4:	47b1                	li	a5,12
    15b6:	04f4f763          	bgeu	s1,a5,1604 <_malloc_r+0x60>
    15ba:	44b1                	li	s1,12
    15bc:	04b4e663          	bltu	s1,a1,1608 <_malloc_r+0x64>
    15c0:	c02a                	sw	a0,0(sp)
    15c2:	16b000ef          	jal	ra,1f2c <__malloc_lock>
    15c6:	80c18713          	addi	a4,gp,-2036 # 2000009c <__malloc_free_list>
    15ca:	4314                	lw	a3,0(a4)
    15cc:	4782                	lw	a5,0(sp)
    15ce:	8436                	mv	s0,a3
    15d0:	e421                	bnez	s0,1618 <_malloc_r+0x74>
    15d2:	81018713          	addi	a4,gp,-2032 # 200000a0 <__malloc_sbrk_start>
    15d6:	4318                	lw	a4,0(a4)
    15d8:	eb01                	bnez	a4,15e8 <_malloc_r+0x44>
    15da:	853e                	mv	a0,a5
    15dc:	4581                	li	a1,0
    15de:	c03e                	sw	a5,0(sp)
    15e0:	2771                	jal	1d6c <_sbrk_r>
    15e2:	80a1a823          	sw	a0,-2032(gp) # 200000a0 <__malloc_sbrk_start>
    15e6:	4782                	lw	a5,0(sp)
    15e8:	853e                	mv	a0,a5
    15ea:	85a6                	mv	a1,s1
    15ec:	c03e                	sw	a5,0(sp)
    15ee:	2fbd                	jal	1d6c <_sbrk_r>
    15f0:	577d                	li	a4,-1
    15f2:	4782                	lw	a5,0(sp)
    15f4:	06e51663          	bne	a0,a4,1660 <_malloc_r+0xbc>
    15f8:	4731                	li	a4,12
    15fa:	c398                	sw	a4,0(a5)
    15fc:	853e                	mv	a0,a5
    15fe:	131000ef          	jal	ra,1f2e <__malloc_unlock>
    1602:	a029                	j	160c <_malloc_r+0x68>
    1604:	fa04dce3          	bgez	s1,15bc <_malloc_r+0x18>
    1608:	47b1                	li	a5,12
    160a:	c11c                	sw	a5,0(a0)
    160c:	4501                	li	a0,0
    160e:	40b2                	lw	ra,12(sp)
    1610:	4422                	lw	s0,8(sp)
    1612:	4492                	lw	s1,4(sp)
    1614:	0141                	addi	sp,sp,16
    1616:	8082                	ret
    1618:	4018                	lw	a4,0(s0)
    161a:	8f05                	sub	a4,a4,s1
    161c:	02074f63          	bltz	a4,165a <_malloc_r+0xb6>
    1620:	462d                	li	a2,11
    1622:	00e67663          	bgeu	a2,a4,162e <_malloc_r+0x8a>
    1626:	c018                	sw	a4,0(s0)
    1628:	943a                	add	s0,s0,a4
    162a:	c004                	sw	s1,0(s0)
    162c:	a031                	j	1638 <_malloc_r+0x94>
    162e:	4058                	lw	a4,4(s0)
    1630:	02869363          	bne	a3,s0,1656 <_malloc_r+0xb2>
    1634:	80e1a623          	sw	a4,-2036(gp) # 2000009c <__malloc_free_list>
    1638:	853e                	mv	a0,a5
    163a:	0f5000ef          	jal	ra,1f2e <__malloc_unlock>
    163e:	00b40513          	addi	a0,s0,11
    1642:	00440713          	addi	a4,s0,4
    1646:	9961                	andi	a0,a0,-8
    1648:	40e507b3          	sub	a5,a0,a4
    164c:	d3e9                	beqz	a5,160e <_malloc_r+0x6a>
    164e:	943e                	add	s0,s0,a5
    1650:	8f09                	sub	a4,a4,a0
    1652:	c018                	sw	a4,0(s0)
    1654:	bf6d                	j	160e <_malloc_r+0x6a>
    1656:	c2d8                	sw	a4,4(a3)
    1658:	b7c5                	j	1638 <_malloc_r+0x94>
    165a:	86a2                	mv	a3,s0
    165c:	4040                	lw	s0,4(s0)
    165e:	bf8d                	j	15d0 <_malloc_r+0x2c>
    1660:	00350413          	addi	s0,a0,3
    1664:	9871                	andi	s0,s0,-4
    1666:	fc8502e3          	beq	a0,s0,162a <_malloc_r+0x86>
    166a:	40a405b3          	sub	a1,s0,a0
    166e:	853e                	mv	a0,a5
    1670:	c03e                	sw	a5,0(sp)
    1672:	2ded                	jal	1d6c <_sbrk_r>
    1674:	577d                	li	a4,-1
    1676:	4782                	lw	a5,0(sp)
    1678:	fae519e3          	bne	a0,a4,162a <_malloc_r+0x86>
    167c:	bfb5                	j	15f8 <_malloc_r+0x54>

0000167e <__sfputc_r>:
    167e:	461c                	lw	a5,8(a2)
    1680:	17fd                	addi	a5,a5,-1
    1682:	c61c                	sw	a5,8(a2)
    1684:	0007da63          	bgez	a5,1698 <__sfputc_r+0x1a>
    1688:	4e18                	lw	a4,24(a2)
    168a:	00e7c563          	blt	a5,a4,1694 <__sfputc_r+0x16>
    168e:	47a9                	li	a5,10
    1690:	00f59463          	bne	a1,a5,1698 <__sfputc_r+0x1a>
    1694:	f74ff06f          	j	e08 <__swbuf_r>
    1698:	421c                	lw	a5,0(a2)
    169a:	852e                	mv	a0,a1
    169c:	00178713          	addi	a4,a5,1 # f001 <__fini_array_end+0xcfad>
    16a0:	c218                	sw	a4,0(a2)
    16a2:	a38c                	sb	a1,0(a5)
    16a4:	8082                	ret

000016a6 <__sfputs_r>:
    16a6:	1131                	addi	sp,sp,-20
    16a8:	c622                	sw	s0,12(sp)
    16aa:	c426                	sw	s1,8(sp)
    16ac:	c806                	sw	ra,16(sp)
    16ae:	87aa                	mv	a5,a0
    16b0:	872e                	mv	a4,a1
    16b2:	8432                	mv	s0,a2
    16b4:	00d604b3          	add	s1,a2,a3
    16b8:	00941463          	bne	s0,s1,16c0 <__sfputs_r+0x1a>
    16bc:	4501                	li	a0,0
    16be:	a829                	j	16d8 <__sfputs_r+0x32>
    16c0:	200c                	lbu	a1,0(s0)
    16c2:	863a                	mv	a2,a4
    16c4:	853e                	mv	a0,a5
    16c6:	c23a                	sw	a4,4(sp)
    16c8:	c03e                	sw	a5,0(sp)
    16ca:	3f55                	jal	167e <__sfputc_r>
    16cc:	56fd                	li	a3,-1
    16ce:	0405                	addi	s0,s0,1
    16d0:	4782                	lw	a5,0(sp)
    16d2:	4712                	lw	a4,4(sp)
    16d4:	fed512e3          	bne	a0,a3,16b8 <__sfputs_r+0x12>
    16d8:	40c2                	lw	ra,16(sp)
    16da:	4432                	lw	s0,12(sp)
    16dc:	44a2                	lw	s1,8(sp)
    16de:	0151                	addi	sp,sp,20
    16e0:	8082                	ret

000016e2 <_vfiprintf_r>:
    16e2:	f7810113          	addi	sp,sp,-136
    16e6:	c122                	sw	s0,128(sp)
    16e8:	dea6                	sw	s1,124(sp)
    16ea:	01f10793          	addi	a5,sp,31
    16ee:	c306                	sw	ra,132(sp)
    16f0:	c02a                	sw	a0,0(sp)
    16f2:	c232                	sw	a2,4(sp)
    16f4:	842e                	mv	s0,a1
    16f6:	ff87f493          	andi	s1,a5,-8
    16fa:	c511                	beqz	a0,1706 <_vfiprintf_r+0x24>
    16fc:	4d18                	lw	a4,24(a0)
    16fe:	e701                	bnez	a4,1706 <_vfiprintf_r+0x24>
    1700:	c636                	sw	a3,12(sp)
    1702:	365d                	jal	12a8 <__sinit>
    1704:	46b2                	lw	a3,12(sp)
    1706:	00001717          	auipc	a4,0x1
    170a:	8ca70713          	addi	a4,a4,-1846 # 1fd0 <__sf_fake_stdin>
    170e:	0ee41063          	bne	s0,a4,17ee <_vfiprintf_r+0x10c>
    1712:	4782                	lw	a5,0(sp)
    1714:	43c0                	lw	s0,4(a5)
    1716:	245a                	lhu	a4,12(s0)
    1718:	8b21                	andi	a4,a4,8
    171a:	0e070c63          	beqz	a4,1812 <_vfiprintf_r+0x130>
    171e:	4818                	lw	a4,16(s0)
    1720:	cb6d                	beqz	a4,1812 <_vfiprintf_r+0x130>
    1722:	02000713          	li	a4,32
    1726:	bc98                	sb	a4,25(s1)
    1728:	03000713          	li	a4,48
    172c:	0004aa23          	sw	zero,20(s1)
    1730:	acb8                	sb	a4,26(s1)
    1732:	ca36                	sw	a3,20(sp)
    1734:	4712                	lw	a4,4(sp)
    1736:	02500613          	li	a2,37
    173a:	2314                	lbu	a3,0(a4)
    173c:	c299                	beqz	a3,1742 <_vfiprintf_r+0x60>
    173e:	0ec69963          	bne	a3,a2,1830 <_vfiprintf_r+0x14e>
    1742:	4792                	lw	a5,4(sp)
    1744:	40f70333          	sub	t1,a4,a5
    1748:	02030163          	beqz	t1,176a <_vfiprintf_r+0x88>
    174c:	4502                	lw	a0,0(sp)
    174e:	869a                	mv	a3,t1
    1750:	863e                	mv	a2,a5
    1752:	85a2                	mv	a1,s0
    1754:	c83a                	sw	a4,16(sp)
    1756:	c61a                	sw	t1,12(sp)
    1758:	37b9                	jal	16a6 <__sfputs_r>
    175a:	56fd                	li	a3,-1
    175c:	20d50563          	beq	a0,a3,1966 <_vfiprintf_r+0x284>
    1760:	48d4                	lw	a3,20(s1)
    1762:	4332                	lw	t1,12(sp)
    1764:	4742                	lw	a4,16(sp)
    1766:	969a                	add	a3,a3,t1
    1768:	c8d4                	sw	a3,20(s1)
    176a:	2314                	lbu	a3,0(a4)
    176c:	1e068d63          	beqz	a3,1966 <_vfiprintf_r+0x284>
    1770:	00170313          	addi	t1,a4,1
    1774:	577d                	li	a4,-1
    1776:	0004a023          	sw	zero,0(s1)
    177a:	0004a623          	sw	zero,12(s1)
    177e:	c0d8                	sw	a4,4(s1)
    1780:	0004a423          	sw	zero,8(s1)
    1784:	040481a3          	sb	zero,67(s1)
    1788:	0404ac23          	sw	zero,88(s1)
    178c:	00034583          	lbu	a1,0(t1)
    1790:	4615                	li	a2,5
    1792:	00001517          	auipc	a0,0x1
    1796:	87e50513          	addi	a0,a0,-1922 # 2010 <__sf_fake_stdout+0x20>
    179a:	c21a                	sw	t1,4(sp)
    179c:	778000ef          	jal	ra,1f14 <memchr>
    17a0:	4312                	lw	t1,4(sp)
    17a2:	4094                	lw	a3,0(s1)
    17a4:	00130713          	addi	a4,t1,1
    17a8:	e551                	bnez	a0,1834 <_vfiprintf_r+0x152>
    17aa:	0106f613          	andi	a2,a3,16
    17ae:	c609                	beqz	a2,17b8 <_vfiprintf_r+0xd6>
    17b0:	02000613          	li	a2,32
    17b4:	04c481a3          	sb	a2,67(s1)
    17b8:	0086f613          	andi	a2,a3,8
    17bc:	c609                	beqz	a2,17c6 <_vfiprintf_r+0xe4>
    17be:	02b00613          	li	a2,43
    17c2:	04c481a3          	sb	a2,67(s1)
    17c6:	00034583          	lbu	a1,0(t1)
    17ca:	02a00613          	li	a2,42
    17ce:	08c58063          	beq	a1,a2,184e <_vfiprintf_r+0x16c>
    17d2:	44d4                	lw	a3,12(s1)
    17d4:	871a                	mv	a4,t1
    17d6:	4581                	li	a1,0
    17d8:	4525                	li	a0,9
    17da:	2310                	lbu	a2,0(a4)
    17dc:	00170313          	addi	t1,a4,1
    17e0:	fd060613          	addi	a2,a2,-48 # 1ffd0 <__fini_array_end+0x1df7c>
    17e4:	0ac57863          	bgeu	a0,a2,1894 <_vfiprintf_r+0x1b2>
    17e8:	c9bd                	beqz	a1,185e <_vfiprintf_r+0x17c>
    17ea:	c4d4                	sw	a3,12(s1)
    17ec:	a88d                	j	185e <_vfiprintf_r+0x17c>
    17ee:	00001717          	auipc	a4,0x1
    17f2:	80270713          	addi	a4,a4,-2046 # 1ff0 <__sf_fake_stdout>
    17f6:	00e41563          	bne	s0,a4,1800 <_vfiprintf_r+0x11e>
    17fa:	4782                	lw	a5,0(sp)
    17fc:	4780                	lw	s0,8(a5)
    17fe:	bf21                	j	1716 <_vfiprintf_r+0x34>
    1800:	00000717          	auipc	a4,0x0
    1804:	7b070713          	addi	a4,a4,1968 # 1fb0 <__sf_fake_stderr>
    1808:	f0e417e3          	bne	s0,a4,1716 <_vfiprintf_r+0x34>
    180c:	4782                	lw	a5,0(sp)
    180e:	47c0                	lw	s0,12(a5)
    1810:	b719                	j	1716 <_vfiprintf_r+0x34>
    1812:	4502                	lw	a0,0(sp)
    1814:	85a2                	mv	a1,s0
    1816:	c636                	sw	a3,12(sp)
    1818:	eb2ff0ef          	jal	ra,eca <__swsetup_r>
    181c:	46b2                	lw	a3,12(sp)
    181e:	f00502e3          	beqz	a0,1722 <_vfiprintf_r+0x40>
    1822:	557d                	li	a0,-1
    1824:	409a                	lw	ra,132(sp)
    1826:	440a                	lw	s0,128(sp)
    1828:	54f6                	lw	s1,124(sp)
    182a:	08810113          	addi	sp,sp,136
    182e:	8082                	ret
    1830:	0705                	addi	a4,a4,1
    1832:	b721                	j	173a <_vfiprintf_r+0x58>
    1834:	00000617          	auipc	a2,0x0
    1838:	7dc60613          	addi	a2,a2,2012 # 2010 <__sf_fake_stdout+0x20>
    183c:	40c50633          	sub	a2,a0,a2
    1840:	4505                	li	a0,1
    1842:	00c51533          	sll	a0,a0,a2
    1846:	8ec9                	or	a3,a3,a0
    1848:	c094                	sw	a3,0(s1)
    184a:	833a                	mv	t1,a4
    184c:	b781                	j	178c <_vfiprintf_r+0xaa>
    184e:	4652                	lw	a2,20(sp)
    1850:	00460593          	addi	a1,a2,4
    1854:	4210                	lw	a2,0(a2)
    1856:	ca2e                	sw	a1,20(sp)
    1858:	02064763          	bltz	a2,1886 <_vfiprintf_r+0x1a4>
    185c:	c4d0                	sw	a2,12(s1)
    185e:	2310                	lbu	a2,0(a4)
    1860:	02e00693          	li	a3,46
    1864:	06d61163          	bne	a2,a3,18c6 <_vfiprintf_r+0x1e4>
    1868:	3310                	lbu	a2,1(a4)
    186a:	02a00693          	li	a3,42
    186e:	02d61e63          	bne	a2,a3,18aa <_vfiprintf_r+0x1c8>
    1872:	46d2                	lw	a3,20(sp)
    1874:	0709                	addi	a4,a4,2
    1876:	00468613          	addi	a2,a3,4
    187a:	4294                	lw	a3,0(a3)
    187c:	ca32                	sw	a2,20(sp)
    187e:	0206c463          	bltz	a3,18a6 <_vfiprintf_r+0x1c4>
    1882:	c0d4                	sw	a3,4(s1)
    1884:	a089                	j	18c6 <_vfiprintf_r+0x1e4>
    1886:	40c00633          	neg	a2,a2
    188a:	0026e693          	ori	a3,a3,2
    188e:	c4d0                	sw	a2,12(s1)
    1890:	c094                	sw	a3,0(s1)
    1892:	b7f1                	j	185e <_vfiprintf_r+0x17c>
    1894:	00269713          	slli	a4,a3,0x2
    1898:	9736                	add	a4,a4,a3
    189a:	0706                	slli	a4,a4,0x1
    189c:	00c706b3          	add	a3,a4,a2
    18a0:	4585                	li	a1,1
    18a2:	871a                	mv	a4,t1
    18a4:	bf1d                	j	17da <_vfiprintf_r+0xf8>
    18a6:	56fd                	li	a3,-1
    18a8:	bfe9                	j	1882 <_vfiprintf_r+0x1a0>
    18aa:	0705                	addi	a4,a4,1
    18ac:	0004a223          	sw	zero,4(s1)
    18b0:	4581                	li	a1,0
    18b2:	4681                	li	a3,0
    18b4:	4525                	li	a0,9
    18b6:	2310                	lbu	a2,0(a4)
    18b8:	00170313          	addi	t1,a4,1
    18bc:	fd060613          	addi	a2,a2,-48
    18c0:	06c57763          	bgeu	a0,a2,192e <_vfiprintf_r+0x24c>
    18c4:	fddd                	bnez	a1,1882 <_vfiprintf_r+0x1a0>
    18c6:	230c                	lbu	a1,0(a4)
    18c8:	460d                	li	a2,3
    18ca:	00000517          	auipc	a0,0x0
    18ce:	74e50513          	addi	a0,a0,1870 # 2018 <__sf_fake_stdout+0x28>
    18d2:	c23a                	sw	a4,4(sp)
    18d4:	2581                	jal	1f14 <memchr>
    18d6:	4712                	lw	a4,4(sp)
    18d8:	cd11                	beqz	a0,18f4 <_vfiprintf_r+0x212>
    18da:	00000697          	auipc	a3,0x0
    18de:	73e68693          	addi	a3,a3,1854 # 2018 <__sf_fake_stdout+0x28>
    18e2:	8d15                	sub	a0,a0,a3
    18e4:	04000693          	li	a3,64
    18e8:	00a696b3          	sll	a3,a3,a0
    18ec:	4088                	lw	a0,0(s1)
    18ee:	0705                	addi	a4,a4,1
    18f0:	8d55                	or	a0,a0,a3
    18f2:	c088                	sw	a0,0(s1)
    18f4:	230c                	lbu	a1,0(a4)
    18f6:	00170793          	addi	a5,a4,1
    18fa:	4619                	li	a2,6
    18fc:	00000517          	auipc	a0,0x0
    1900:	72050513          	addi	a0,a0,1824 # 201c <__sf_fake_stdout+0x2c>
    1904:	c23e                	sw	a5,4(sp)
    1906:	ac8c                	sb	a1,24(s1)
    1908:	2531                	jal	1f14 <memchr>
    190a:	c52d                	beqz	a0,1974 <_vfiprintf_r+0x292>
    190c:	ffffe717          	auipc	a4,0xffffe
    1910:	6f470713          	addi	a4,a4,1780 # 0 <_sinit>
    1914:	eb05                	bnez	a4,1944 <_vfiprintf_r+0x262>
    1916:	4094                	lw	a3,0(s1)
    1918:	4752                	lw	a4,20(sp)
    191a:	1006f693          	andi	a3,a3,256
    191e:	c28d                	beqz	a3,1940 <_vfiprintf_r+0x25e>
    1920:	0711                	addi	a4,a4,4
    1922:	ca3a                	sw	a4,20(sp)
    1924:	48d8                	lw	a4,20(s1)
    1926:	47a2                	lw	a5,8(sp)
    1928:	973e                	add	a4,a4,a5
    192a:	c8d8                	sw	a4,20(s1)
    192c:	b521                	j	1734 <_vfiprintf_r+0x52>
    192e:	00269713          	slli	a4,a3,0x2
    1932:	9736                	add	a4,a4,a3
    1934:	0706                	slli	a4,a4,0x1
    1936:	00c706b3          	add	a3,a4,a2
    193a:	4585                	li	a1,1
    193c:	871a                	mv	a4,t1
    193e:	bfa5                	j	18b6 <_vfiprintf_r+0x1d4>
    1940:	0721                	addi	a4,a4,8
    1942:	b7c5                	j	1922 <_vfiprintf_r+0x240>
    1944:	4502                	lw	a0,0(sp)
    1946:	0858                	addi	a4,sp,20
    1948:	00000697          	auipc	a3,0x0
    194c:	d5e68693          	addi	a3,a3,-674 # 16a6 <__sfputs_r>
    1950:	8622                	mv	a2,s0
    1952:	85a6                	mv	a1,s1
    1954:	00000097          	auipc	ra,0x0
    1958:	000000e7          	jalr	zero # 0 <_sinit>
    195c:	c42a                	sw	a0,8(sp)
    195e:	47a2                	lw	a5,8(sp)
    1960:	577d                	li	a4,-1
    1962:	fce791e3          	bne	a5,a4,1924 <_vfiprintf_r+0x242>
    1966:	245a                	lhu	a4,12(s0)
    1968:	04077713          	andi	a4,a4,64
    196c:	ea071be3          	bnez	a4,1822 <_vfiprintf_r+0x140>
    1970:	48c8                	lw	a0,20(s1)
    1972:	bd4d                	j	1824 <_vfiprintf_r+0x142>
    1974:	4502                	lw	a0,0(sp)
    1976:	0858                	addi	a4,sp,20
    1978:	00000697          	auipc	a3,0x0
    197c:	d2e68693          	addi	a3,a3,-722 # 16a6 <__sfputs_r>
    1980:	8622                	mv	a2,s0
    1982:	85a6                	mv	a1,s1
    1984:	2a05                	jal	1ab4 <_printf_i>
    1986:	bfd9                	j	195c <_vfiprintf_r+0x27a>

00001988 <_printf_common>:
    1988:	1101                	addi	sp,sp,-32
    198a:	ca26                	sw	s1,20(sp)
    198c:	8332                	mv	t1,a2
    198e:	84b6                	mv	s1,a3
    1990:	4590                	lw	a2,8(a1)
    1992:	4994                	lw	a3,16(a1)
    1994:	cc22                	sw	s0,24(sp)
    1996:	ce06                	sw	ra,28(sp)
    1998:	842a                	mv	s0,a0
    199a:	87ae                	mv	a5,a1
    199c:	00c6d363          	bge	a3,a2,19a2 <_printf_common+0x1a>
    19a0:	86b2                	mv	a3,a2
    19a2:	00d32023          	sw	a3,0(t1)
    19a6:	0437c603          	lbu	a2,67(a5)
    19aa:	c601                	beqz	a2,19b2 <_printf_common+0x2a>
    19ac:	0685                	addi	a3,a3,1
    19ae:	00d32023          	sw	a3,0(t1)
    19b2:	4394                	lw	a3,0(a5)
    19b4:	0206f693          	andi	a3,a3,32
    19b8:	c691                	beqz	a3,19c4 <_printf_common+0x3c>
    19ba:	00032683          	lw	a3,0(t1)
    19be:	0689                	addi	a3,a3,2
    19c0:	00d32023          	sw	a3,0(t1)
    19c4:	0007a283          	lw	t0,0(a5)
    19c8:	01978393          	addi	t2,a5,25
    19cc:	0062f293          	andi	t0,t0,6
    19d0:	06028363          	beqz	t0,1a36 <_printf_common+0xae>
    19d4:	4390                	lw	a2,0(a5)
    19d6:	0437c683          	lbu	a3,67(a5)
    19da:	02067613          	andi	a2,a2,32
    19de:	00d036b3          	snez	a3,a3
    19e2:	ea41                	bnez	a2,1a72 <_printf_common+0xea>
    19e4:	04378613          	addi	a2,a5,67
    19e8:	85a6                	mv	a1,s1
    19ea:	8522                	mv	a0,s0
    19ec:	c41a                	sw	t1,8(sp)
    19ee:	c23e                	sw	a5,4(sp)
    19f0:	c03a                	sw	a4,0(sp)
    19f2:	9702                	jalr	a4
    19f4:	56fd                	li	a3,-1
    19f6:	06d50863          	beq	a0,a3,1a66 <_printf_common+0xde>
    19fa:	4792                	lw	a5,4(sp)
    19fc:	4322                	lw	t1,8(sp)
    19fe:	4511                	li	a0,4
    1a00:	4394                	lw	a3,0(a5)
    1a02:	00032603          	lw	a2,0(t1)
    1a06:	47cc                	lw	a1,12(a5)
    1a08:	8a99                	andi	a3,a3,6
    1a0a:	4301                	li	t1,0
    1a0c:	4702                	lw	a4,0(sp)
    1a0e:	00a69763          	bne	a3,a0,1a1c <_printf_common+0x94>
    1a12:	40c58333          	sub	t1,a1,a2
    1a16:	00035363          	bgez	t1,1a1c <_printf_common+0x94>
    1a1a:	4301                	li	t1,0
    1a1c:	4794                	lw	a3,8(a5)
    1a1e:	4b90                	lw	a2,16(a5)
    1a20:	00d65463          	bge	a2,a3,1a28 <_printf_common+0xa0>
    1a24:	8e91                	sub	a3,a3,a2
    1a26:	9336                	add	t1,t1,a3
    1a28:	4281                	li	t0,0
    1a2a:	07e9                	addi	a5,a5,26
    1a2c:	06531263          	bne	t1,t0,1a90 <_printf_common+0x108>
    1a30:	4501                	li	a0,0
    1a32:	a81d                	j	1a68 <_printf_common+0xe0>
    1a34:	0285                	addi	t0,t0,1
    1a36:	47d4                	lw	a3,12(a5)
    1a38:	00032603          	lw	a2,0(t1)
    1a3c:	8e91                	sub	a3,a3,a2
    1a3e:	f8d2dbe3          	bge	t0,a3,19d4 <_printf_common+0x4c>
    1a42:	4685                	li	a3,1
    1a44:	861e                	mv	a2,t2
    1a46:	85a6                	mv	a1,s1
    1a48:	8522                	mv	a0,s0
    1a4a:	c81a                	sw	t1,16(sp)
    1a4c:	c63e                	sw	a5,12(sp)
    1a4e:	c416                	sw	t0,8(sp)
    1a50:	c21e                	sw	t2,4(sp)
    1a52:	c03a                	sw	a4,0(sp)
    1a54:	9702                	jalr	a4
    1a56:	56fd                	li	a3,-1
    1a58:	4702                	lw	a4,0(sp)
    1a5a:	4392                	lw	t2,4(sp)
    1a5c:	42a2                	lw	t0,8(sp)
    1a5e:	47b2                	lw	a5,12(sp)
    1a60:	4342                	lw	t1,16(sp)
    1a62:	fcd519e3          	bne	a0,a3,1a34 <_printf_common+0xac>
    1a66:	557d                	li	a0,-1
    1a68:	40f2                	lw	ra,28(sp)
    1a6a:	4462                	lw	s0,24(sp)
    1a6c:	44d2                	lw	s1,20(sp)
    1a6e:	6105                	addi	sp,sp,32
    1a70:	8082                	ret
    1a72:	00d785b3          	add	a1,a5,a3
    1a76:	03000513          	li	a0,48
    1a7a:	04a581a3          	sb	a0,67(a1)
    1a7e:	0457c583          	lbu	a1,69(a5)
    1a82:	00168613          	addi	a2,a3,1
    1a86:	963e                	add	a2,a2,a5
    1a88:	0689                	addi	a3,a3,2
    1a8a:	04b601a3          	sb	a1,67(a2)
    1a8e:	bf99                	j	19e4 <_printf_common+0x5c>
    1a90:	4685                	li	a3,1
    1a92:	863e                	mv	a2,a5
    1a94:	85a6                	mv	a1,s1
    1a96:	8522                	mv	a0,s0
    1a98:	c616                	sw	t0,12(sp)
    1a9a:	c41a                	sw	t1,8(sp)
    1a9c:	c23e                	sw	a5,4(sp)
    1a9e:	c03a                	sw	a4,0(sp)
    1aa0:	9702                	jalr	a4
    1aa2:	56fd                	li	a3,-1
    1aa4:	fcd501e3          	beq	a0,a3,1a66 <_printf_common+0xde>
    1aa8:	42b2                	lw	t0,12(sp)
    1aaa:	4322                	lw	t1,8(sp)
    1aac:	4792                	lw	a5,4(sp)
    1aae:	0285                	addi	t0,t0,1
    1ab0:	4702                	lw	a4,0(sp)
    1ab2:	bfad                	j	1a2c <_printf_common+0xa4>

00001ab4 <_printf_i>:
    1ab4:	fd410113          	addi	sp,sp,-44
    1ab8:	d222                	sw	s0,36(sp)
    1aba:	d406                	sw	ra,40(sp)
    1abc:	d026                	sw	s1,32(sp)
    1abe:	c232                	sw	a2,4(sp)
    1ac0:	2d90                	lbu	a2,24(a1)
    1ac2:	c436                	sw	a3,8(sp)
    1ac4:	c02a                	sw	a0,0(sp)
    1ac6:	06900693          	li	a3,105
    1aca:	842e                	mv	s0,a1
    1acc:	04358293          	addi	t0,a1,67
    1ad0:	02d60d63          	beq	a2,a3,1b0a <_printf_i+0x56>
    1ad4:	06c6e263          	bltu	a3,a2,1b38 <_printf_i+0x84>
    1ad8:	05800693          	li	a3,88
    1adc:	18d60e63          	beq	a2,a3,1c78 <_printf_i+0x1c4>
    1ae0:	00c6ed63          	bltu	a3,a2,1afa <_printf_i+0x46>
    1ae4:	22060663          	beqz	a2,1d10 <_printf_i+0x25c>
    1ae8:	04300693          	li	a3,67
    1aec:	0ad60c63          	beq	a2,a3,1ba4 <_printf_i+0xf0>
    1af0:	04240493          	addi	s1,s0,66
    1af4:	04c40123          	sb	a2,66(s0)
    1af8:	a87d                	j	1bb6 <_printf_i+0x102>
    1afa:	06300693          	li	a3,99
    1afe:	0ad60363          	beq	a2,a3,1ba4 <_printf_i+0xf0>
    1b02:	06400693          	li	a3,100
    1b06:	fed615e3          	bne	a2,a3,1af0 <_printf_i+0x3c>
    1b0a:	4014                	lw	a3,0(s0)
    1b0c:	4308                	lw	a0,0(a4)
    1b0e:	0806f613          	andi	a2,a3,128
    1b12:	00450593          	addi	a1,a0,4
    1b16:	c255                	beqz	a2,1bba <_printf_i+0x106>
    1b18:	4114                	lw	a3,0(a0)
    1b1a:	c30c                	sw	a1,0(a4)
    1b1c:	0006d863          	bgez	a3,1b2c <_printf_i+0x78>
    1b20:	02d00713          	li	a4,45
    1b24:	40d006b3          	neg	a3,a3
    1b28:	04e401a3          	sb	a4,67(s0)
    1b2c:	00000617          	auipc	a2,0x0
    1b30:	4f860613          	addi	a2,a2,1272 # 2024 <__sf_fake_stdout+0x34>
    1b34:	4729                	li	a4,10
    1b36:	a855                	j	1bea <_printf_i+0x136>
    1b38:	07000693          	li	a3,112
    1b3c:	16d60a63          	beq	a2,a3,1cb0 <_printf_i+0x1fc>
    1b40:	02c6e563          	bltu	a3,a2,1b6a <_printf_i+0xb6>
    1b44:	06e00693          	li	a3,110
    1b48:	1ad60163          	beq	a2,a3,1cea <_printf_i+0x236>
    1b4c:	06f00693          	li	a3,111
    1b50:	fad610e3          	bne	a2,a3,1af0 <_printf_i+0x3c>
    1b54:	400c                	lw	a1,0(s0)
    1b56:	4314                	lw	a3,0(a4)
    1b58:	0805f313          	andi	t1,a1,128
    1b5c:	00468513          	addi	a0,a3,4
    1b60:	06030563          	beqz	t1,1bca <_printf_i+0x116>
    1b64:	c308                	sw	a0,0(a4)
    1b66:	4294                	lw	a3,0(a3)
    1b68:	a0b5                	j	1bd4 <_printf_i+0x120>
    1b6a:	07500693          	li	a3,117
    1b6e:	fed603e3          	beq	a2,a3,1b54 <_printf_i+0xa0>
    1b72:	07800693          	li	a3,120
    1b76:	14d60163          	beq	a2,a3,1cb8 <_printf_i+0x204>
    1b7a:	07300693          	li	a3,115
    1b7e:	f6d619e3          	bne	a2,a3,1af0 <_printf_i+0x3c>
    1b82:	4314                	lw	a3,0(a4)
    1b84:	00468613          	addi	a2,a3,4
    1b88:	c310                	sw	a2,0(a4)
    1b8a:	4284                	lw	s1,0(a3)
    1b8c:	41d0                	lw	a2,4(a1)
    1b8e:	4581                	li	a1,0
    1b90:	8526                	mv	a0,s1
    1b92:	2649                	jal	1f14 <memchr>
    1b94:	c119                	beqz	a0,1b9a <_printf_i+0xe6>
    1b96:	8d05                	sub	a0,a0,s1
    1b98:	c048                	sw	a0,4(s0)
    1b9a:	4058                	lw	a4,4(s0)
    1b9c:	c818                	sw	a4,16(s0)
    1b9e:	040401a3          	sb	zero,67(s0)
    1ba2:	a85d                	j	1c58 <_printf_i+0x1a4>
    1ba4:	4314                	lw	a3,0(a4)
    1ba6:	04240493          	addi	s1,s0,66
    1baa:	00468613          	addi	a2,a3,4
    1bae:	c310                	sw	a2,0(a4)
    1bb0:	4298                	lw	a4,0(a3)
    1bb2:	04e40123          	sb	a4,66(s0)
    1bb6:	4705                	li	a4,1
    1bb8:	b7d5                	j	1b9c <_printf_i+0xe8>
    1bba:	0406f613          	andi	a2,a3,64
    1bbe:	4114                	lw	a3,0(a0)
    1bc0:	c30c                	sw	a1,0(a4)
    1bc2:	de29                	beqz	a2,1b1c <_printf_i+0x68>
    1bc4:	06c2                	slli	a3,a3,0x10
    1bc6:	86c1                	srai	a3,a3,0x10
    1bc8:	bf91                	j	1b1c <_printf_i+0x68>
    1bca:	0405f593          	andi	a1,a1,64
    1bce:	c308                	sw	a0,0(a4)
    1bd0:	d9d9                	beqz	a1,1b66 <_printf_i+0xb2>
    1bd2:	2296                	lhu	a3,0(a3)
    1bd4:	06f00713          	li	a4,111
    1bd8:	10e60163          	beq	a2,a4,1cda <_printf_i+0x226>
    1bdc:	00000617          	auipc	a2,0x0
    1be0:	44860613          	addi	a2,a2,1096 # 2024 <__sf_fake_stdout+0x34>
    1be4:	4729                	li	a4,10
    1be6:	040401a3          	sb	zero,67(s0)
    1bea:	404c                	lw	a1,4(s0)
    1bec:	c40c                	sw	a1,8(s0)
    1bee:	0005c563          	bltz	a1,1bf8 <_printf_i+0x144>
    1bf2:	4008                	lw	a0,0(s0)
    1bf4:	996d                	andi	a0,a0,-5
    1bf6:	c008                	sw	a0,0(s0)
    1bf8:	e299                	bnez	a3,1bfe <_printf_i+0x14a>
    1bfa:	8496                	mv	s1,t0
    1bfc:	c99d                	beqz	a1,1c32 <_printf_i+0x17e>
    1bfe:	8496                	mv	s1,t0
    1c00:	85ba                	mv	a1,a4
    1c02:	8536                	mv	a0,a3
    1c04:	cc16                	sw	t0,24(sp)
    1c06:	ca32                	sw	a2,20(sp)
    1c08:	c83a                	sw	a4,16(sp)
    1c0a:	c636                	sw	a3,12(sp)
    1c0c:	cdcfe0ef          	jal	ra,e8 <__umodsi3>
    1c10:	4652                	lw	a2,20(sp)
    1c12:	4742                	lw	a4,16(sp)
    1c14:	46b2                	lw	a3,12(sp)
    1c16:	9532                	add	a0,a0,a2
    1c18:	210c                	lbu	a1,0(a0)
    1c1a:	14fd                	addi	s1,s1,-1
    1c1c:	8536                	mv	a0,a3
    1c1e:	a08c                	sb	a1,0(s1)
    1c20:	85ba                	mv	a1,a4
    1c22:	c9afe0ef          	jal	ra,bc <__udivsi3>
    1c26:	46b2                	lw	a3,12(sp)
    1c28:	4742                	lw	a4,16(sp)
    1c2a:	4652                	lw	a2,20(sp)
    1c2c:	42e2                	lw	t0,24(sp)
    1c2e:	0ae6fc63          	bgeu	a3,a4,1ce6 <_printf_i+0x232>
    1c32:	46a1                	li	a3,8
    1c34:	00d71e63          	bne	a4,a3,1c50 <_printf_i+0x19c>
    1c38:	4018                	lw	a4,0(s0)
    1c3a:	8b05                	andi	a4,a4,1
    1c3c:	cb11                	beqz	a4,1c50 <_printf_i+0x19c>
    1c3e:	4054                	lw	a3,4(s0)
    1c40:	4818                	lw	a4,16(s0)
    1c42:	00d74763          	blt	a4,a3,1c50 <_printf_i+0x19c>
    1c46:	03000713          	li	a4,48
    1c4a:	fee48fa3          	sb	a4,-1(s1)
    1c4e:	14fd                	addi	s1,s1,-1
    1c50:	409282b3          	sub	t0,t0,s1
    1c54:	00542823          	sw	t0,16(s0)
    1c58:	4722                	lw	a4,8(sp)
    1c5a:	4692                	lw	a3,4(sp)
    1c5c:	4502                	lw	a0,0(sp)
    1c5e:	0870                	addi	a2,sp,28
    1c60:	85a2                	mv	a1,s0
    1c62:	331d                	jal	1988 <_printf_common>
    1c64:	577d                	li	a4,-1
    1c66:	0ae51963          	bne	a0,a4,1d18 <_printf_i+0x264>
    1c6a:	557d                	li	a0,-1
    1c6c:	50a2                	lw	ra,40(sp)
    1c6e:	5412                	lw	s0,36(sp)
    1c70:	5482                	lw	s1,32(sp)
    1c72:	02c10113          	addi	sp,sp,44
    1c76:	8082                	ret
    1c78:	04c582a3          	sb	a2,69(a1)
    1c7c:	00000617          	auipc	a2,0x0
    1c80:	3a860613          	addi	a2,a2,936 # 2024 <__sf_fake_stdout+0x34>
    1c84:	400c                	lw	a1,0(s0)
    1c86:	4308                	lw	a0,0(a4)
    1c88:	0805f313          	andi	t1,a1,128
    1c8c:	4114                	lw	a3,0(a0)
    1c8e:	0511                	addi	a0,a0,4
    1c90:	02030d63          	beqz	t1,1cca <_printf_i+0x216>
    1c94:	c308                	sw	a0,0(a4)
    1c96:	0015f713          	andi	a4,a1,1
    1c9a:	c701                	beqz	a4,1ca2 <_printf_i+0x1ee>
    1c9c:	0205e593          	ori	a1,a1,32
    1ca0:	c00c                	sw	a1,0(s0)
    1ca2:	4741                	li	a4,16
    1ca4:	f2a9                	bnez	a3,1be6 <_printf_i+0x132>
    1ca6:	400c                	lw	a1,0(s0)
    1ca8:	fdf5f593          	andi	a1,a1,-33
    1cac:	c00c                	sw	a1,0(s0)
    1cae:	bf25                	j	1be6 <_printf_i+0x132>
    1cb0:	4194                	lw	a3,0(a1)
    1cb2:	0206e693          	ori	a3,a3,32
    1cb6:	c194                	sw	a3,0(a1)
    1cb8:	07800693          	li	a3,120
    1cbc:	04d402a3          	sb	a3,69(s0)
    1cc0:	00000617          	auipc	a2,0x0
    1cc4:	37860613          	addi	a2,a2,888 # 2038 <__sf_fake_stdout+0x48>
    1cc8:	bf75                	j	1c84 <_printf_i+0x1d0>
    1cca:	0405f313          	andi	t1,a1,64
    1cce:	c308                	sw	a0,0(a4)
    1cd0:	fc0303e3          	beqz	t1,1c96 <_printf_i+0x1e2>
    1cd4:	06c2                	slli	a3,a3,0x10
    1cd6:	82c1                	srli	a3,a3,0x10
    1cd8:	bf7d                	j	1c96 <_printf_i+0x1e2>
    1cda:	00000617          	auipc	a2,0x0
    1cde:	34a60613          	addi	a2,a2,842 # 2024 <__sf_fake_stdout+0x34>
    1ce2:	4721                	li	a4,8
    1ce4:	b709                	j	1be6 <_printf_i+0x132>
    1ce6:	86aa                	mv	a3,a0
    1ce8:	bf21                	j	1c00 <_printf_i+0x14c>
    1cea:	4190                	lw	a2,0(a1)
    1cec:	4314                	lw	a3,0(a4)
    1cee:	49cc                	lw	a1,20(a1)
    1cf0:	08067313          	andi	t1,a2,128
    1cf4:	00468513          	addi	a0,a3,4
    1cf8:	00030663          	beqz	t1,1d04 <_printf_i+0x250>
    1cfc:	c308                	sw	a0,0(a4)
    1cfe:	4298                	lw	a4,0(a3)
    1d00:	c30c                	sw	a1,0(a4)
    1d02:	a039                	j	1d10 <_printf_i+0x25c>
    1d04:	c308                	sw	a0,0(a4)
    1d06:	04067613          	andi	a2,a2,64
    1d0a:	4298                	lw	a4,0(a3)
    1d0c:	da75                	beqz	a2,1d00 <_printf_i+0x24c>
    1d0e:	a30e                	sh	a1,0(a4)
    1d10:	00042823          	sw	zero,16(s0)
    1d14:	8496                	mv	s1,t0
    1d16:	b789                	j	1c58 <_printf_i+0x1a4>
    1d18:	4814                	lw	a3,16(s0)
    1d1a:	4592                	lw	a1,4(sp)
    1d1c:	4502                	lw	a0,0(sp)
    1d1e:	47a2                	lw	a5,8(sp)
    1d20:	8626                	mv	a2,s1
    1d22:	9782                	jalr	a5
    1d24:	577d                	li	a4,-1
    1d26:	f4e502e3          	beq	a0,a4,1c6a <_printf_i+0x1b6>
    1d2a:	4018                	lw	a4,0(s0)
    1d2c:	8b09                	andi	a4,a4,2
    1d2e:	eb1d                	bnez	a4,1d64 <_printf_i+0x2b0>
    1d30:	4772                	lw	a4,28(sp)
    1d32:	4448                	lw	a0,12(s0)
    1d34:	f2e55ce3          	bge	a0,a4,1c6c <_printf_i+0x1b8>
    1d38:	853a                	mv	a0,a4
    1d3a:	bf0d                	j	1c6c <_printf_i+0x1b8>
    1d3c:	4592                	lw	a1,4(sp)
    1d3e:	4502                	lw	a0,0(sp)
    1d40:	47a2                	lw	a5,8(sp)
    1d42:	4685                	li	a3,1
    1d44:	861a                	mv	a2,t1
    1d46:	c83a                	sw	a4,16(sp)
    1d48:	c61a                	sw	t1,12(sp)
    1d4a:	9782                	jalr	a5
    1d4c:	56fd                	li	a3,-1
    1d4e:	f0d50ee3          	beq	a0,a3,1c6a <_printf_i+0x1b6>
    1d52:	4742                	lw	a4,16(sp)
    1d54:	4332                	lw	t1,12(sp)
    1d56:	0705                	addi	a4,a4,1
    1d58:	4454                	lw	a3,12(s0)
    1d5a:	4672                	lw	a2,28(sp)
    1d5c:	8e91                	sub	a3,a3,a2
    1d5e:	fcd74fe3          	blt	a4,a3,1d3c <_printf_i+0x288>
    1d62:	b7f9                	j	1d30 <_printf_i+0x27c>
    1d64:	4701                	li	a4,0
    1d66:	01940313          	addi	t1,s0,25
    1d6a:	b7fd                	j	1d58 <_printf_i+0x2a4>

00001d6c <_sbrk_r>:
    1d6c:	1151                	addi	sp,sp,-12
    1d6e:	c222                	sw	s0,4(sp)
    1d70:	842a                	mv	s0,a0
    1d72:	852e                	mv	a0,a1
    1d74:	e201a823          	sw	zero,-464(gp) # 200006c0 <errno>
    1d78:	c406                	sw	ra,8(sp)
    1d7a:	e93fe0ef          	jal	ra,c0c <_sbrk>
    1d7e:	57fd                	li	a5,-1
    1d80:	00f51763          	bne	a0,a5,1d8e <_sbrk_r+0x22>
    1d84:	e3018793          	addi	a5,gp,-464 # 200006c0 <errno>
    1d88:	439c                	lw	a5,0(a5)
    1d8a:	c391                	beqz	a5,1d8e <_sbrk_r+0x22>
    1d8c:	c01c                	sw	a5,0(s0)
    1d8e:	40a2                	lw	ra,8(sp)
    1d90:	4412                	lw	s0,4(sp)
    1d92:	0131                	addi	sp,sp,12
    1d94:	8082                	ret

00001d96 <__sread>:
    1d96:	1151                	addi	sp,sp,-12
    1d98:	c222                	sw	s0,4(sp)
    1d9a:	842e                	mv	s0,a1
    1d9c:	00e59583          	lh	a1,14(a1)
    1da0:	c406                	sw	ra,8(sp)
    1da2:	2279                	jal	1f30 <_read_r>
    1da4:	00054963          	bltz	a0,1db6 <__sread+0x20>
    1da8:	487c                	lw	a5,84(s0)
    1daa:	97aa                	add	a5,a5,a0
    1dac:	c87c                	sw	a5,84(s0)
    1dae:	40a2                	lw	ra,8(sp)
    1db0:	4412                	lw	s0,4(sp)
    1db2:	0131                	addi	sp,sp,12
    1db4:	8082                	ret
    1db6:	245e                	lhu	a5,12(s0)
    1db8:	777d                	lui	a4,0xfffff
    1dba:	177d                	addi	a4,a4,-1
    1dbc:	8ff9                	and	a5,a5,a4
    1dbe:	a45e                	sh	a5,12(s0)
    1dc0:	b7fd                	j	1dae <__sread+0x18>

00001dc2 <__swrite>:
    1dc2:	25de                	lhu	a5,12(a1)
    1dc4:	1131                	addi	sp,sp,-20
    1dc6:	c622                	sw	s0,12(sp)
    1dc8:	c426                	sw	s1,8(sp)
    1dca:	c806                	sw	ra,16(sp)
    1dcc:	1007f793          	andi	a5,a5,256
    1dd0:	84aa                	mv	s1,a0
    1dd2:	842e                	mv	s0,a1
    1dd4:	8332                	mv	t1,a2
    1dd6:	82b6                	mv	t0,a3
    1dd8:	cb91                	beqz	a5,1dec <__swrite+0x2a>
    1dda:	00e59583          	lh	a1,14(a1)
    1dde:	c236                	sw	a3,4(sp)
    1de0:	c032                	sw	a2,0(sp)
    1de2:	4689                	li	a3,2
    1de4:	4601                	li	a2,0
    1de6:	2209                	jal	1ee8 <_lseek_r>
    1de8:	4292                	lw	t0,4(sp)
    1dea:	4302                	lw	t1,0(sp)
    1dec:	245e                	lhu	a5,12(s0)
    1dee:	777d                	lui	a4,0xfffff
    1df0:	177d                	addi	a4,a4,-1
    1df2:	8ff9                	and	a5,a5,a4
    1df4:	a45e                	sh	a5,12(s0)
    1df6:	00e41583          	lh	a1,14(s0)
    1dfa:	4432                	lw	s0,12(sp)
    1dfc:	40c2                	lw	ra,16(sp)
    1dfe:	8526                	mv	a0,s1
    1e00:	44a2                	lw	s1,8(sp)
    1e02:	8696                	mv	a3,t0
    1e04:	861a                	mv	a2,t1
    1e06:	0151                	addi	sp,sp,20
    1e08:	a825                	j	1e40 <_write_r>

00001e0a <__sseek>:
    1e0a:	1151                	addi	sp,sp,-12
    1e0c:	c222                	sw	s0,4(sp)
    1e0e:	842e                	mv	s0,a1
    1e10:	00e59583          	lh	a1,14(a1)
    1e14:	c406                	sw	ra,8(sp)
    1e16:	28c9                	jal	1ee8 <_lseek_r>
    1e18:	57fd                	li	a5,-1
    1e1a:	245a                	lhu	a4,12(s0)
    1e1c:	00f51a63          	bne	a0,a5,1e30 <__sseek+0x26>
    1e20:	77fd                	lui	a5,0xfffff
    1e22:	17fd                	addi	a5,a5,-1
    1e24:	8ff9                	and	a5,a5,a4
    1e26:	a45e                	sh	a5,12(s0)
    1e28:	40a2                	lw	ra,8(sp)
    1e2a:	4412                	lw	s0,4(sp)
    1e2c:	0131                	addi	sp,sp,12
    1e2e:	8082                	ret
    1e30:	6785                	lui	a5,0x1
    1e32:	8fd9                	or	a5,a5,a4
    1e34:	a45e                	sh	a5,12(s0)
    1e36:	c868                	sw	a0,84(s0)
    1e38:	bfc5                	j	1e28 <__sseek+0x1e>

00001e3a <__sclose>:
    1e3a:	00e59583          	lh	a1,14(a1)
    1e3e:	a805                	j	1e6e <_close_r>

00001e40 <_write_r>:
    1e40:	1151                	addi	sp,sp,-12
    1e42:	c222                	sw	s0,4(sp)
    1e44:	842a                	mv	s0,a0
    1e46:	852e                	mv	a0,a1
    1e48:	85b2                	mv	a1,a2
    1e4a:	8636                	mv	a2,a3
    1e4c:	e201a823          	sw	zero,-464(gp) # 200006c0 <errno>
    1e50:	c406                	sw	ra,8(sp)
    1e52:	d6ffe0ef          	jal	ra,bc0 <_write>
    1e56:	57fd                	li	a5,-1
    1e58:	00f51763          	bne	a0,a5,1e66 <_write_r+0x26>
    1e5c:	e3018793          	addi	a5,gp,-464 # 200006c0 <errno>
    1e60:	439c                	lw	a5,0(a5)
    1e62:	c391                	beqz	a5,1e66 <_write_r+0x26>
    1e64:	c01c                	sw	a5,0(s0)
    1e66:	40a2                	lw	ra,8(sp)
    1e68:	4412                	lw	s0,4(sp)
    1e6a:	0131                	addi	sp,sp,12
    1e6c:	8082                	ret

00001e6e <_close_r>:
    1e6e:	1151                	addi	sp,sp,-12
    1e70:	c222                	sw	s0,4(sp)
    1e72:	842a                	mv	s0,a0
    1e74:	852e                	mv	a0,a1
    1e76:	e201a823          	sw	zero,-464(gp) # 200006c0 <errno>
    1e7a:	c406                	sw	ra,8(sp)
    1e7c:	20c5                	jal	1f5c <_close>
    1e7e:	57fd                	li	a5,-1
    1e80:	00f51763          	bne	a0,a5,1e8e <_close_r+0x20>
    1e84:	e3018793          	addi	a5,gp,-464 # 200006c0 <errno>
    1e88:	439c                	lw	a5,0(a5)
    1e8a:	c391                	beqz	a5,1e8e <_close_r+0x20>
    1e8c:	c01c                	sw	a5,0(s0)
    1e8e:	40a2                	lw	ra,8(sp)
    1e90:	4412                	lw	s0,4(sp)
    1e92:	0131                	addi	sp,sp,12
    1e94:	8082                	ret

00001e96 <_fstat_r>:
    1e96:	1151                	addi	sp,sp,-12
    1e98:	c222                	sw	s0,4(sp)
    1e9a:	842a                	mv	s0,a0
    1e9c:	852e                	mv	a0,a1
    1e9e:	85b2                	mv	a1,a2
    1ea0:	e201a823          	sw	zero,-464(gp) # 200006c0 <errno>
    1ea4:	c406                	sw	ra,8(sp)
    1ea6:	20c9                	jal	1f68 <_fstat>
    1ea8:	57fd                	li	a5,-1
    1eaa:	00f51763          	bne	a0,a5,1eb8 <_fstat_r+0x22>
    1eae:	e3018793          	addi	a5,gp,-464 # 200006c0 <errno>
    1eb2:	439c                	lw	a5,0(a5)
    1eb4:	c391                	beqz	a5,1eb8 <_fstat_r+0x22>
    1eb6:	c01c                	sw	a5,0(s0)
    1eb8:	40a2                	lw	ra,8(sp)
    1eba:	4412                	lw	s0,4(sp)
    1ebc:	0131                	addi	sp,sp,12
    1ebe:	8082                	ret

00001ec0 <_isatty_r>:
    1ec0:	1151                	addi	sp,sp,-12
    1ec2:	c222                	sw	s0,4(sp)
    1ec4:	842a                	mv	s0,a0
    1ec6:	852e                	mv	a0,a1
    1ec8:	e201a823          	sw	zero,-464(gp) # 200006c0 <errno>
    1ecc:	c406                	sw	ra,8(sp)
    1ece:	205d                	jal	1f74 <_isatty>
    1ed0:	57fd                	li	a5,-1
    1ed2:	00f51763          	bne	a0,a5,1ee0 <_isatty_r+0x20>
    1ed6:	e3018793          	addi	a5,gp,-464 # 200006c0 <errno>
    1eda:	439c                	lw	a5,0(a5)
    1edc:	c391                	beqz	a5,1ee0 <_isatty_r+0x20>
    1ede:	c01c                	sw	a5,0(s0)
    1ee0:	40a2                	lw	ra,8(sp)
    1ee2:	4412                	lw	s0,4(sp)
    1ee4:	0131                	addi	sp,sp,12
    1ee6:	8082                	ret

00001ee8 <_lseek_r>:
    1ee8:	1151                	addi	sp,sp,-12
    1eea:	c222                	sw	s0,4(sp)
    1eec:	842a                	mv	s0,a0
    1eee:	852e                	mv	a0,a1
    1ef0:	85b2                	mv	a1,a2
    1ef2:	8636                	mv	a2,a3
    1ef4:	e201a823          	sw	zero,-464(gp) # 200006c0 <errno>
    1ef8:	c406                	sw	ra,8(sp)
    1efa:	2059                	jal	1f80 <_lseek>
    1efc:	57fd                	li	a5,-1
    1efe:	00f51763          	bne	a0,a5,1f0c <_lseek_r+0x24>
    1f02:	e3018793          	addi	a5,gp,-464 # 200006c0 <errno>
    1f06:	439c                	lw	a5,0(a5)
    1f08:	c391                	beqz	a5,1f0c <_lseek_r+0x24>
    1f0a:	c01c                	sw	a5,0(s0)
    1f0c:	40a2                	lw	ra,8(sp)
    1f0e:	4412                	lw	s0,4(sp)
    1f10:	0131                	addi	sp,sp,12
    1f12:	8082                	ret

00001f14 <memchr>:
    1f14:	0ff5f593          	andi	a1,a1,255
    1f18:	962a                	add	a2,a2,a0
    1f1a:	00c51463          	bne	a0,a2,1f22 <memchr+0xe>
    1f1e:	4501                	li	a0,0
    1f20:	8082                	ret
    1f22:	211c                	lbu	a5,0(a0)
    1f24:	feb78ee3          	beq	a5,a1,1f20 <memchr+0xc>
    1f28:	0505                	addi	a0,a0,1
    1f2a:	bfc5                	j	1f1a <memchr+0x6>

00001f2c <__malloc_lock>:
    1f2c:	8082                	ret

00001f2e <__malloc_unlock>:
    1f2e:	8082                	ret

00001f30 <_read_r>:
    1f30:	1151                	addi	sp,sp,-12
    1f32:	c222                	sw	s0,4(sp)
    1f34:	842a                	mv	s0,a0
    1f36:	852e                	mv	a0,a1
    1f38:	85b2                	mv	a1,a2
    1f3a:	8636                	mv	a2,a3
    1f3c:	e201a823          	sw	zero,-464(gp) # 200006c0 <errno>
    1f40:	c406                	sw	ra,8(sp)
    1f42:	20a9                	jal	1f8c <_read>
    1f44:	57fd                	li	a5,-1
    1f46:	00f51763          	bne	a0,a5,1f54 <_read_r+0x24>
    1f4a:	e3018793          	addi	a5,gp,-464 # 200006c0 <errno>
    1f4e:	439c                	lw	a5,0(a5)
    1f50:	c391                	beqz	a5,1f54 <_read_r+0x24>
    1f52:	c01c                	sw	a5,0(s0)
    1f54:	40a2                	lw	ra,8(sp)
    1f56:	4412                	lw	s0,4(sp)
    1f58:	0131                	addi	sp,sp,12
    1f5a:	8082                	ret

00001f5c <_close>:
    1f5c:	05800793          	li	a5,88
    1f60:	e2f1a823          	sw	a5,-464(gp) # 200006c0 <errno>
    1f64:	557d                	li	a0,-1
    1f66:	8082                	ret

00001f68 <_fstat>:
    1f68:	05800793          	li	a5,88
    1f6c:	e2f1a823          	sw	a5,-464(gp) # 200006c0 <errno>
    1f70:	557d                	li	a0,-1
    1f72:	8082                	ret

00001f74 <_isatty>:
    1f74:	05800793          	li	a5,88
    1f78:	e2f1a823          	sw	a5,-464(gp) # 200006c0 <errno>
    1f7c:	4501                	li	a0,0
    1f7e:	8082                	ret

00001f80 <_lseek>:
    1f80:	05800793          	li	a5,88
    1f84:	e2f1a823          	sw	a5,-464(gp) # 200006c0 <errno>
    1f88:	557d                	li	a0,-1
    1f8a:	8082                	ret

00001f8c <_read>:
    1f8c:	05800793          	li	a5,88
    1f90:	e2f1a823          	sw	a5,-464(gp) # 200006c0 <errno>
    1f94:	557d                	li	a0,-1
    1f96:	8082                	ret
    1f98:	6554                	flw	fa3,12(a0)
    1f9a:	00007473          	csrrci	s0,ustatus,0
    1f9e:	0000                	unimp
    1fa0:	74737953          	0x74737953
    1fa4:	6d65                	lui	s10,0x19
    1fa6:	316b6c43          	fmadd.s	fs8,fs6,fs6,ft6,unknown
    1faa:	253a                	lhu	a4,10(a0)
    1fac:	0d64                	addi	s1,sp,668
    1fae:	000a                	c.slli	zero,0x2

00001fb0 <__sf_fake_stderr>:
	...

00001fd0 <__sf_fake_stdin>:
	...

00001ff0 <__sf_fake_stdout>:
	...
    2010:	2d23 2b30 0020 0000 6c68 004c 6665 4567     #-0+ ...hlL.efgE
    2020:	4746 0000 3130 3332 3534 3736 3938 4241     FG..0123456789AB
    2030:	4443 4645 0000 0000 3130 3332 3534 3736     CDEF....01234567
    2040:	3938 6261 6463 6665 0000 0000               89abcdef....
